
A6.1.elf:     file format elf32-avr

Sections:
Idx Name          Size      VMA       LMA       File off  Algn
  0 .data         000000e6  00800200  00002d24  00002dd8  2**0
                  CONTENTS, ALLOC, LOAD, DATA
  1 .text         00002d24  00000000  00000000  000000b4  2**1
                  CONTENTS, ALLOC, LOAD, READONLY, CODE
  2 .bss          00001a1e  008002e6  008002e6  00002ebe  2**0
                  ALLOC
  3 .eeprom       00000004  00810000  00810000  00002ebe  2**0
                  CONTENTS, ALLOC, LOAD, DATA
  4 .comment      00000030  00000000  00000000  00002ec2  2**0
                  CONTENTS, READONLY
  5 .note.gnu.avr.deviceinfo 00000040  00000000  00000000  00002ef4  2**2
                  CONTENTS, READONLY
  6 .debug_aranges 000004e0  00000000  00000000  00002f38  2**3
                  CONTENTS, READONLY, DEBUGGING
  7 .debug_info   00008ca0  00000000  00000000  00003418  2**0
                  CONTENTS, READONLY, DEBUGGING
  8 .debug_abbrev 000029d2  00000000  00000000  0000c0b8  2**0
                  CONTENTS, READONLY, DEBUGGING
  9 .debug_line   00003ab9  00000000  00000000  0000ea8a  2**0
                  CONTENTS, READONLY, DEBUGGING
 10 .debug_frame  00001338  00000000  00000000  00012544  2**2
                  CONTENTS, READONLY, DEBUGGING
 11 .debug_str    000025e4  00000000  00000000  0001387c  2**0
                  CONTENTS, READONLY, DEBUGGING
 12 .debug_loc    00005905  00000000  00000000  00015e60  2**0
                  CONTENTS, READONLY, DEBUGGING
 13 .debug_ranges 00000480  00000000  00000000  0001b765  2**0
                  CONTENTS, READONLY, DEBUGGING

Disassembly of section .text:

00000000 <__vectors>:
       0:	de c0       	rjmp	.+444    	; 0x1be <_ZL7wdt_offv>
       2:	00 00       	nop
       4:	60 c1       	rjmp	.+704    	; 0x2c6 <__bad_interrupt>
       6:	00 00       	nop
       8:	5e c1       	rjmp	.+700    	; 0x2c6 <__bad_interrupt>
       a:	00 00       	nop
       c:	5c c1       	rjmp	.+696    	; 0x2c6 <__bad_interrupt>
       e:	00 00       	nop
      10:	5a c1       	rjmp	.+692    	; 0x2c6 <__bad_interrupt>
      12:	00 00       	nop
      14:	58 c1       	rjmp	.+688    	; 0x2c6 <__bad_interrupt>
      16:	00 00       	nop
      18:	56 c1       	rjmp	.+684    	; 0x2c6 <__bad_interrupt>
      1a:	00 00       	nop
      1c:	54 c1       	rjmp	.+680    	; 0x2c6 <__bad_interrupt>
      1e:	00 00       	nop
      20:	52 c1       	rjmp	.+676    	; 0x2c6 <__bad_interrupt>
      22:	00 00       	nop
      24:	0c 94 40 08 	jmp	0x1080	; 0x1080 <__vector_9>
      28:	0c 94 73 08 	jmp	0x10e6	; 0x10e6 <__vector_10>
      2c:	0c 94 a6 08 	jmp	0x114c	; 0x114c <__vector_11>
      30:	4a c1       	rjmp	.+660    	; 0x2c6 <__bad_interrupt>
      32:	00 00       	nop
      34:	0c 94 a3 0f 	jmp	0x1f46	; 0x1f46 <__vector_13>
      38:	0c 94 d6 0f 	jmp	0x1fac	; 0x1fac <__vector_14>
      3c:	44 c1       	rjmp	.+648    	; 0x2c6 <__bad_interrupt>
      3e:	00 00       	nop
      40:	42 c1       	rjmp	.+644    	; 0x2c6 <__bad_interrupt>
      42:	00 00       	nop
      44:	0c 94 09 10 	jmp	0x2012	; 0x2012 <__vector_17>
      48:	0c 94 3c 10 	jmp	0x2078	; 0x2078 <__vector_18>
      4c:	0c 94 6f 10 	jmp	0x20de	; 0x20de <__vector_19>
      50:	0c 94 a2 10 	jmp	0x2144	; 0x2144 <__vector_20>
      54:	0c 94 3d 0f 	jmp	0x1e7a	; 0x1e7a <__vector_21>
      58:	0c 94 70 0f 	jmp	0x1ee0	; 0x1ee0 <__vector_22>
      5c:	0c 94 61 0c 	jmp	0x18c2	; 0x18c2 <__vector_23>
      60:	32 c1       	rjmp	.+612    	; 0x2c6 <__bad_interrupt>
      62:	00 00       	nop
      64:	30 c1       	rjmp	.+608    	; 0x2c6 <__bad_interrupt>
      66:	00 00       	nop
      68:	2e c1       	rjmp	.+604    	; 0x2c6 <__bad_interrupt>
      6a:	00 00       	nop
      6c:	2c c1       	rjmp	.+600    	; 0x2c6 <__bad_interrupt>
      6e:	00 00       	nop
      70:	2a c1       	rjmp	.+596    	; 0x2c6 <__bad_interrupt>
      72:	00 00       	nop
      74:	c6 c5       	rjmp	.+2956   	; 0xc02 <__vector_29>
      76:	00 00       	nop
      78:	26 c1       	rjmp	.+588    	; 0x2c6 <__bad_interrupt>
      7a:	00 00       	nop
      7c:	24 c1       	rjmp	.+584    	; 0x2c6 <__bad_interrupt>
      7e:	00 00       	nop
      80:	0c 94 d5 10 	jmp	0x21aa	; 0x21aa <__vector_32>
      84:	0c 94 08 11 	jmp	0x2210	; 0x2210 <__vector_33>
      88:	0c 94 3b 11 	jmp	0x2276	; 0x2276 <__vector_34>
      8c:	0c 94 6e 11 	jmp	0x22dc	; 0x22dc <__vector_35>
      90:	1a c1       	rjmp	.+564    	; 0x2c6 <__bad_interrupt>
      92:	00 00       	nop
      94:	18 c1       	rjmp	.+560    	; 0x2c6 <__bad_interrupt>
      96:	00 00       	nop
      98:	16 c1       	rjmp	.+556    	; 0x2c6 <__bad_interrupt>
      9a:	00 00       	nop
      9c:	14 c1       	rjmp	.+552    	; 0x2c6 <__bad_interrupt>
      9e:	00 00       	nop
      a0:	12 c1       	rjmp	.+548    	; 0x2c6 <__bad_interrupt>
      a2:	00 00       	nop
      a4:	10 c1       	rjmp	.+544    	; 0x2c6 <__bad_interrupt>
      a6:	00 00       	nop
      a8:	0c 94 a1 11 	jmp	0x2342	; 0x2342 <__vector_42>
      ac:	0c 94 d4 11 	jmp	0x23a8	; 0x23a8 <__vector_43>
      b0:	0c 94 07 12 	jmp	0x240e	; 0x240e <__vector_44>
      b4:	0c 94 3a 12 	jmp	0x2474	; 0x2474 <__vector_45>
      b8:	06 c1       	rjmp	.+524    	; 0x2c6 <__bad_interrupt>
      ba:	00 00       	nop
      bc:	0c 94 6d 12 	jmp	0x24da	; 0x24da <__vector_47>
      c0:	0c 94 a0 12 	jmp	0x2540	; 0x2540 <__vector_48>
      c4:	0c 94 d3 12 	jmp	0x25a6	; 0x25a6 <__vector_49>
      c8:	0c 94 06 13 	jmp	0x260c	; 0x260c <__vector_50>
      cc:	fc c0       	rjmp	.+504    	; 0x2c6 <__bad_interrupt>
      ce:	00 00       	nop
      d0:	fa c0       	rjmp	.+500    	; 0x2c6 <__bad_interrupt>
      d2:	00 00       	nop
      d4:	f8 c0       	rjmp	.+496    	; 0x2c6 <__bad_interrupt>
      d6:	00 00       	nop
      d8:	f6 c0       	rjmp	.+492    	; 0x2c6 <__bad_interrupt>
      da:	00 00       	nop
      dc:	f4 c0       	rjmp	.+488    	; 0x2c6 <__bad_interrupt>
      de:	00 00       	nop
      e0:	f2 c0       	rjmp	.+484    	; 0x2c6 <__bad_interrupt>
	...

000000e4 <__trampolines_end>:
      e4:	20 20       	and	r2, r0
      e6:	20 20       	and	r2, r0
      e8:	20 20       	and	r2, r0
      ea:	20 20       	and	r2, r0
      ec:	20 20       	and	r2, r0
      ee:	20 20       	and	r2, r0
      f0:	20 20       	and	r2, r0
      f2:	20 20       	and	r2, r0
      f4:	20 20       	and	r2, r0
      f6:	20 20       	and	r2, r0
      f8:	20 00       	.word	0x0020	; ????

000000fa <_ZL12settempalarm>:
      fa:	53 65 74 74 69 6e 67 20 54 65 6d 70 65 72 61 74     Setting Temperat
     10a:	75 72 65 2e 2e 00                                   ure...

00000110 <_ZL10setseconds>:
     110:	53 65 74 74 69 6e 67 20 73 65 63 6f 6e 64 73 2e     Setting seconds.
     120:	2e 2e 00                                            ...

00000123 <_ZL10setminutes>:
     123:	53 65 74 74 69 6e 67 20 6d 69 6e 75 74 65 73 2e     Setting minutes.
     133:	2e 2e 00                                            ...

00000136 <_ZL8sethours>:
     136:	53 65 74 74 69 6e 67 20 68 6f 75 72 73 2e 2e 2e     Setting hours...
	...

00000147 <_ZL10text_clear>:
     147:	20 20 20 20 20 20 20 20 20 20 00                              .

00000152 <_ZL9temp_text>:
     152:	48 49 47 48 20 54 45 4d 50 21 00                    HIGH TEMP!.

0000015d <_ZL10alarm_text>:
     15d:	42 45 45 50 20 42 4f 4f 50 21 00                    BEEP BOOP!.

00000168 <_ZL8dataline>:
     168:	30 30 3a 30 30 3a 30 30 20 20 20 20 30 30 3a 30     00:00:00    00:0
     178:	30 20 20 20 20 20 20 20 20 43 20 28 78 78 78 29     0        C (xxx)
     188:	20 20 20 79 79 20 20 25 00                             yy  %.

00000191 <_ZL8headline>:
     191:	55 68 72 7a 65 69 74 20 20 20 20 57 65 63 6b 7a     Uhrzeit    Weckz
     1a1:	65 69 74 20 20 54 65 6d 70 65 72 61 74 75 72 20     eit  Temperatur 
     1b1:	20 46 65 75 63 68 74 65 00                           Feuchte.

000001ba <__ctors_start>:
     1ba:	fb 05       	cpc	r31, r11
     1bc:	62 0d       	add	r22, r2

000001be <_ZL7wdt_offv>:
// ausgeschaltet werden, sonst ensteht eine endlose RESET-Schleife. 
// Zu diesem Zweck wird der Aufruf von wdt_off() in die frueheste init-Sektion
// eingebaut - dieser Code wird unmittelbar nach RESET ausgefuehrt.

static void wdt_off (void) __attribute__((section(".init0"),naked, used));
static void wdt_off (void) {MCUSR = 0; wdt_disable();}
     1be:	14 be       	out	0x34, r1	; 52
				"out __SREG__,__tmp_reg__"   "\n\t"
				: [TEMPREG] "=d" (temp_reg)
				: [WDTREG]  "n"  (_SFR_MEM_ADDR(_WD_CONTROL_REG)),
				[WDCE_WDE]  "n"  ((uint8_t)(_BV(_WD_CHANGE_BIT) | _BV(WDE)))
				: "r0"
		);
     1c0:	0f b6       	in	r0, 0x3f	; 63
     1c2:	f8 94       	cli
     1c4:	a8 95       	wdr
     1c6:	80 91 60 00 	lds	r24, 0x0060	; 0x800060 <__TEXT_REGION_LENGTH__+0x7c0060>
     1ca:	88 61       	ori	r24, 0x18	; 24
     1cc:	80 93 60 00 	sts	0x0060, r24	; 0x800060 <__TEXT_REGION_LENGTH__+0x7c0060>
     1d0:	10 92 60 00 	sts	0x0060, r1	; 0x800060 <__TEXT_REGION_LENGTH__+0x7c0060>
     1d4:	0f be       	out	0x3f, r0	; 63

000001d6 <_ZL7wdt_offv>:
     1d6:	14 be       	out	0x34, r1	; 52
     1d8:	0f b6       	in	r0, 0x3f	; 63
     1da:	f8 94       	cli
     1dc:	a8 95       	wdr
     1de:	80 91 60 00 	lds	r24, 0x0060	; 0x800060 <__TEXT_REGION_LENGTH__+0x7c0060>
     1e2:	88 61       	ori	r24, 0x18	; 24
     1e4:	80 93 60 00 	sts	0x0060, r24	; 0x800060 <__TEXT_REGION_LENGTH__+0x7c0060>
     1e8:	10 92 60 00 	sts	0x0060, r1	; 0x800060 <__TEXT_REGION_LENGTH__+0x7c0060>
     1ec:	0f be       	out	0x3f, r0	; 63

000001ee <_ZL7wdt_offv>:
     1ee:	14 be       	out	0x34, r1	; 52
     1f0:	0f b6       	in	r0, 0x3f	; 63
     1f2:	f8 94       	cli
     1f4:	a8 95       	wdr
     1f6:	80 91 60 00 	lds	r24, 0x0060	; 0x800060 <__TEXT_REGION_LENGTH__+0x7c0060>
     1fa:	88 61       	ori	r24, 0x18	; 24
     1fc:	80 93 60 00 	sts	0x0060, r24	; 0x800060 <__TEXT_REGION_LENGTH__+0x7c0060>
     200:	10 92 60 00 	sts	0x0060, r1	; 0x800060 <__TEXT_REGION_LENGTH__+0x7c0060>
     204:	0f be       	out	0x3f, r0	; 63

00000206 <_ZL7wdt_offv>:
     206:	14 be       	out	0x34, r1	; 52
     208:	0f b6       	in	r0, 0x3f	; 63
     20a:	f8 94       	cli
     20c:	a8 95       	wdr
     20e:	80 91 60 00 	lds	r24, 0x0060	; 0x800060 <__TEXT_REGION_LENGTH__+0x7c0060>
     212:	88 61       	ori	r24, 0x18	; 24
     214:	80 93 60 00 	sts	0x0060, r24	; 0x800060 <__TEXT_REGION_LENGTH__+0x7c0060>
     218:	10 92 60 00 	sts	0x0060, r1	; 0x800060 <__TEXT_REGION_LENGTH__+0x7c0060>
     21c:	0f be       	out	0x3f, r0	; 63

0000021e <_ZL7wdt_offv>:
     21e:	14 be       	out	0x34, r1	; 52
     220:	0f b6       	in	r0, 0x3f	; 63
     222:	f8 94       	cli
     224:	a8 95       	wdr
     226:	80 91 60 00 	lds	r24, 0x0060	; 0x800060 <__TEXT_REGION_LENGTH__+0x7c0060>
     22a:	88 61       	ori	r24, 0x18	; 24
     22c:	80 93 60 00 	sts	0x0060, r24	; 0x800060 <__TEXT_REGION_LENGTH__+0x7c0060>
     230:	10 92 60 00 	sts	0x0060, r1	; 0x800060 <__TEXT_REGION_LENGTH__+0x7c0060>
     234:	0f be       	out	0x3f, r0	; 63

00000236 <_ZL7wdt_offv>:
}

static __inline__ void __iRestore(const  uint8_t *__s)
{
    SREG = *__s;
    __asm__ volatile ("" ::: "memory");
     236:	14 be       	out	0x34, r1	; 52
     238:	0f b6       	in	r0, 0x3f	; 63
     23a:	f8 94       	cli
     23c:	a8 95       	wdr
     23e:	80 91 60 00 	lds	r24, 0x0060	; 0x800060 <__TEXT_REGION_LENGTH__+0x7c0060>
     242:	88 61       	ori	r24, 0x18	; 24
     244:	80 93 60 00 	sts	0x0060, r24	; 0x800060 <__TEXT_REGION_LENGTH__+0x7c0060>
     248:	10 92 60 00 	sts	0x0060, r1	; 0x800060 <__TEXT_REGION_LENGTH__+0x7c0060>
     24c:	0f be       	out	0x3f, r0	; 63

0000024e <_ZL7wdt_offv>:
     24e:	14 be       	out	0x34, r1	; 52
     250:	0f b6       	in	r0, 0x3f	; 63
     252:	f8 94       	cli
     254:	a8 95       	wdr
     256:	80 91 60 00 	lds	r24, 0x0060	; 0x800060 <__TEXT_REGION_LENGTH__+0x7c0060>
     25a:	88 61       	ori	r24, 0x18	; 24
     25c:	80 93 60 00 	sts	0x0060, r24	; 0x800060 <__TEXT_REGION_LENGTH__+0x7c0060>
     260:	10 92 60 00 	sts	0x0060, r1	; 0x800060 <__TEXT_REGION_LENGTH__+0x7c0060>
     264:	0f be       	out	0x3f, r0	; 63
     266:	11 24       	eor	r1, r1
     268:	1f be       	out	0x3f, r1	; 63
     26a:	cf ef       	ldi	r28, 0xFF	; 255
     26c:	d1 e2       	ldi	r29, 0x21	; 33
     26e:	de bf       	out	0x3e, r29	; 62
     270:	cd bf       	out	0x3d, r28	; 61
     272:	00 e0       	ldi	r16, 0x00	; 0
     274:	0c bf       	out	0x3c, r16	; 60

00000276 <__do_copy_data>:
     276:	12 e0       	ldi	r17, 0x02	; 2
     278:	a0 e0       	ldi	r26, 0x00	; 0
     27a:	b2 e0       	ldi	r27, 0x02	; 2
     27c:	e4 e2       	ldi	r30, 0x24	; 36
     27e:	fd e2       	ldi	r31, 0x2D	; 45
     280:	00 e0       	ldi	r16, 0x00	; 0
     282:	0b bf       	out	0x3b, r16	; 59
     284:	02 c0       	rjmp	.+4      	; 0x28a <__do_copy_data+0x14>
     286:	07 90       	elpm	r0, Z+
     288:	0d 92       	st	X+, r0
     28a:	a6 3e       	cpi	r26, 0xE6	; 230
     28c:	b1 07       	cpc	r27, r17
     28e:	d9 f7       	brne	.-10     	; 0x286 <__do_copy_data+0x10>

00000290 <__do_clear_bss>:
     290:	2d e1       	ldi	r18, 0x1D	; 29
     292:	a6 ee       	ldi	r26, 0xE6	; 230
     294:	b2 e0       	ldi	r27, 0x02	; 2
     296:	01 c0       	rjmp	.+2      	; 0x29a <.do_clear_bss_start>

00000298 <.do_clear_bss_loop>:
     298:	1d 92       	st	X+, r1

0000029a <.do_clear_bss_start>:
     29a:	a4 30       	cpi	r26, 0x04	; 4
     29c:	b2 07       	cpc	r27, r18
     29e:	e1 f7       	brne	.-8      	; 0x298 <.do_clear_bss_loop>

000002a0 <__do_global_ctors>:
     2a0:	10 e0       	ldi	r17, 0x00	; 0
     2a2:	cf ed       	ldi	r28, 0xDF	; 223
     2a4:	d0 e0       	ldi	r29, 0x00	; 0
     2a6:	00 e0       	ldi	r16, 0x00	; 0
     2a8:	06 c0       	rjmp	.+12     	; 0x2b6 <__do_global_ctors+0x16>
     2aa:	21 97       	sbiw	r28, 0x01	; 1
     2ac:	01 09       	sbc	r16, r1
     2ae:	80 2f       	mov	r24, r16
     2b0:	fe 01       	movw	r30, r28
     2b2:	0e 94 72 16 	call	0x2ce4	; 0x2ce4 <__tablejump2__>
     2b6:	cd 3d       	cpi	r28, 0xDD	; 221
     2b8:	d1 07       	cpc	r29, r17
     2ba:	80 e0       	ldi	r24, 0x00	; 0
     2bc:	08 07       	cpc	r16, r24
     2be:	a9 f7       	brne	.-22     	; 0x2aa <__do_global_ctors+0xa>
     2c0:	be d1       	rcall	.+892    	; 0x63e <main>
     2c2:	0c 94 90 16 	jmp	0x2d20	; 0x2d20 <_exit>

000002c6 <__bad_interrupt>:
     2c6:	9c ce       	rjmp	.-712    	; 0x0 <__vectors>

000002c8 <_ZN11ADConverter8identityEj>:
		\retval Betragsmaessig unveraenderter Sensorwert, aber mit Vorzeichen.
		\param [in] adc_val der rohe Sensorwert als unsigned 16 Bit
		
		Diese Funktion ist Default, wenn beim Konstruktor keine andere Funktion angegeben wird.
	*/ 
    static int16_t identity (uint16_t adc_val) {return (int16_t)adc_val;};
     2c8:	08 95       	ret

000002ca <_ZL9ticker_cbv>:
		alarm_status = true;
	}
}

inline void myClock::tick(){
	sec++;
     2ca:	e9 ef       	ldi	r30, 0xF9	; 249
     2cc:	f2 e0       	ldi	r31, 0x02	; 2
     2ce:	82 81       	ldd	r24, Z+2	; 0x02
     2d0:	8f 5f       	subi	r24, 0xFF	; 255
     2d2:	82 83       	std	Z+2, r24	; 0x02
	// Tells the display to update only sec Ziffern	
	update = usec;
     2d4:	92 e0       	ldi	r25, 0x02	; 2
     2d6:	90 87       	std	Z+8, r25	; 0x08
	if (sec > MAX_SEC){
     2d8:	8c 33       	cpi	r24, 0x3C	; 60
     2da:	88 f0       	brcs	.+34     	; 0x2fe <_ZL9ticker_cbv+0x34>
		min++;
     2dc:	81 81       	ldd	r24, Z+1	; 0x01
     2de:	8f 5f       	subi	r24, 0xFF	; 255
     2e0:	81 83       	std	Z+1, r24	; 0x01
		sec = 0;		
     2e2:	12 82       	std	Z+2, r1	; 0x02
		update = umin;		
     2e4:	91 e0       	ldi	r25, 0x01	; 1
     2e6:	90 87       	std	Z+8, r25	; 0x08
	if (min > MAX_MIN){
     2e8:	8c 33       	cpi	r24, 0x3C	; 60
     2ea:	48 f0       	brcs	.+18     	; 0x2fe <_ZL9ticker_cbv+0x34>
		hour++;
     2ec:	80 81       	ld	r24, Z
     2ee:	8f 5f       	subi	r24, 0xFF	; 255
     2f0:	80 83       	st	Z, r24
		min = 0;
     2f2:	11 82       	std	Z+1, r1	; 0x01
		update = uhour;
     2f4:	10 86       	std	Z+8, r1	; 0x08
	if(hour > MAX_H){
     2f6:	88 31       	cpi	r24, 0x18	; 24
     2f8:	10 f0       	brcs	.+4      	; 0x2fe <_ZL9ticker_cbv+0x34>
		hour = 0;
     2fa:	10 92 f9 02 	sts	0x02F9, r1	; 0x8002f9 <_ZL8theClock>
}
//================================================================================================
// ISR VORSICHT!
static void ticker_cb(void){
	theClock.tick();
	sensor_delay--;
     2fe:	80 91 01 02 	lds	r24, 0x0201	; 0x800201 <sensor_delay>
     302:	81 50       	subi	r24, 0x01	; 1
     304:	80 93 01 02 	sts	0x0201, r24	; 0x800201 <sensor_delay>
	led_delay--;
     308:	80 91 00 02 	lds	r24, 0x0200	; 0x800200 <__DATA_REGION_ORIGIN__>
     30c:	81 50       	subi	r24, 0x01	; 1
     30e:	80 93 00 02 	sts	0x0200, r24	; 0x800200 <__DATA_REGION_ORIGIN__>
	do_update = true;
     312:	81 e0       	ldi	r24, 0x01	; 1
     314:	80 93 16 03 	sts	0x0316, r24	; 0x800316 <do_update>
     318:	08 95       	ret

0000031a <_ZL10read_quencPKchhhhha>:
//================================================================================================

// modify number at (line, pos) using len digits
// values range is min to max and initial value is start

static uint8_t read_quenc (const char* prompt, uint8_t line, uint8_t pos, uint8_t len, uint8_t min, uint8_t max, int8_t start) {
     31a:	cf 92       	push	r12
     31c:	df 92       	push	r13
     31e:	ef 92       	push	r14
     320:	ff 92       	push	r15
     322:	0f 93       	push	r16
     324:	1f 93       	push	r17
     326:	cf 93       	push	r28
     328:	df 93       	push	r29
     32a:	ec 01       	movw	r28, r24
     32c:	d6 2e       	mov	r13, r22
     32e:	f4 2e       	mov	r15, r20
     330:	12 2f       	mov	r17, r18
	uint8_t val = start;
	
	// start quadencoder and show prompt on line 3 of display
	// ROW (Horizontal) x COL (Vertical)
	display.set_pos(2, 0); 
     332:	40 e0       	ldi	r20, 0x00	; 0
     334:	62 e0       	ldi	r22, 0x02	; 2
     336:	8c e2       	ldi	r24, 0x2C	; 44
     338:	93 e0       	ldi	r25, 0x03	; 3
     33a:	0e 94 0a 0a 	call	0x1414	; 0x1414 <_ZN3LCD7set_posEhh>
	display.write_FLASH_text(prompt);
     33e:	40 e0       	ldi	r20, 0x00	; 0
     340:	be 01       	movw	r22, r28
     342:	8c e2       	ldi	r24, 0x2C	; 44
     344:	93 e0       	ldi	r25, 0x03	; 3
     346:	0e 94 74 0b 	call	0x16e8	; 0x16e8 <_ZN3LCD16write_FLASH_textEPKch>
	
	// stelle Wertebereich 'min' bis 'max' ein und setzte 'start' als aktuellen Wert und starte die Funktion des Drehgebers 
	quenc.start(min, max, start); 
     34a:	2c 2d       	mov	r18, r12
     34c:	0c 2c       	mov	r0, r12
     34e:	00 0c       	add	r0, r0
     350:	33 0b       	sbc	r19, r19
     352:	4e 2d       	mov	r20, r14
     354:	50 e0       	ldi	r21, 0x00	; 0
     356:	60 2f       	mov	r22, r16
     358:	70 e0       	ldi	r23, 0x00	; 0
     35a:	86 e3       	ldi	r24, 0x36	; 54
     35c:	93 e0       	ldi	r25, 0x03	; 3
     35e:	0e 94 2d 0e 	call	0x1c5a	; 0x1c5a <_ZN11QuadEncoder5startEiii>
	*/
	inline int16_t get_unlocked_value() {new_curr_value = false; return curr_value;};

	/*! \brief Stelle fest, ob am Drehgeber ein bislang noch nicht mittels get_locked_value()
	           abgeholter mittels Tastendruck fixierter Wert vorliegt.*/
	inline bool new_locked_value_available() {return new_locked_value;};
     362:	80 91 42 03 	lds	r24, 0x0342	; 0x800342 <_ZL5quenc+0xc>
	
	while (! quenc.new_locked_value_available()) {
     366:	81 11       	cpse	r24, r1
     368:	19 c0       	rjmp	.+50     	; 0x39c <_ZL10read_quencPKchhhhha+0x82>
	*/
	inline void stop (void) {this->off(); is_active = false;};

	/*! \brief Stelle fest, ob am Drehgeber ein bislang noch nicht mittels get_value()
	           oder get_unlocked_value() abgeholter Wert vorliegt.*/
	inline bool new_value_available () {return new_curr_value;};
     36a:	80 91 43 03 	lds	r24, 0x0343	; 0x800343 <_ZL5quenc+0xd>
		if (quenc.new_value_available()) {
     36e:	88 23       	and	r24, r24
     370:	c1 f3       	breq	.-16     	; 0x362 <_ZL10read_quencPKchhhhha+0x48>
		moeglicherweise Einstellwerte verloren. Es wird immer der zuletzt detektierte Wert
		geliefert, bei sehr rascher Aufruffolge auch wiederholt der gleiche Wert.
		Ein ggf. frueher fixierter Wert, der noch nicht mittels get_locked_value() geholt
		wurde, bleibt gespeichert.
	*/
	inline int16_t get_unlocked_value() {new_curr_value = false; return curr_value;};
     372:	e6 e3       	ldi	r30, 0x36	; 54
     374:	f3 e0       	ldi	r31, 0x03	; 3
     376:	15 86       	std	Z+13, r1	; 0x0d
     378:	c4 89       	ldd	r28, Z+20	; 0x14
     37a:	d5 89       	ldd	r29, Z+21	; 0x15
			val = (uint8_t)quenc.get_unlocked_value();
     37c:	cc 2e       	mov	r12, r28
			display.set_pos(line, pos);
     37e:	4f 2d       	mov	r20, r15
     380:	6d 2d       	mov	r22, r13
     382:	8c e2       	ldi	r24, 0x2C	; 44
     384:	93 e0       	ldi	r25, 0x03	; 3
     386:	0e 94 0a 0a 	call	0x1414	; 0x1414 <_ZN3LCD7set_posEhh>
			display.write_number(val, len, '0');
     38a:	be 01       	movw	r22, r28
     38c:	77 27       	eor	r23, r23
     38e:	20 e3       	ldi	r18, 0x30	; 48
     390:	41 2f       	mov	r20, r17
     392:	8c e2       	ldi	r24, 0x2C	; 44
     394:	93 e0       	ldi	r25, 0x03	; 3
     396:	0e 94 0d 0c 	call	0x181a	; 0x181a <_ZN3LCD12write_numberEihc>
     39a:	e3 cf       	rjmp	.-58     	; 0x362 <_ZL10read_quencPKchhhhha+0x48>
	inline void start(int16_t value) {start (0, 0, value);};
	
	/*! \brief Stoppe die Funktion des Drehgebers. Seine LEDs werden geloescht und er reagiert
	           weder auf Drehen noch auf Tastendruck. Einstellgrenzen bleiben erhalten.
	*/
	inline void stop (void) {this->off(); is_active = false;};
     39c:	c6 e3       	ldi	r28, 0x36	; 54
     39e:	d3 e0       	ldi	r29, 0x03	; 3
     3a0:	e8 81       	ld	r30, Y
     3a2:	f9 81       	ldd	r31, Y+1	; 0x01
     3a4:	04 80       	ldd	r0, Z+4	; 0x04
     3a6:	f5 81       	ldd	r31, Z+5	; 0x05
     3a8:	e0 2d       	mov	r30, r0
     3aa:	64 e3       	ldi	r22, 0x34	; 52
     3ac:	ce 01       	movw	r24, r28
     3ae:	19 95       	eicall
     3b0:	1b 86       	std	Y+11, r1	; 0x0b
		}
	};
	quenc.stop();  // Stoppe den Drehgeber und loesche LEDs des Drehgebers, die evtl. noch an sind
	// when done, clear prompt and return value upon key press
	display.set_pos(2, 0);
     3b2:	40 e0       	ldi	r20, 0x00	; 0
     3b4:	62 e0       	ldi	r22, 0x02	; 2
     3b6:	8c e2       	ldi	r24, 0x2C	; 44
     3b8:	93 e0       	ldi	r25, 0x03	; 3
     3ba:	0e 94 0a 0a 	call	0x1414	; 0x1414 <_ZN3LCD7set_posEhh>
	display.write_FLASH_text(setclear);
     3be:	40 e0       	ldi	r20, 0x00	; 0
     3c0:	64 ee       	ldi	r22, 0xE4	; 228
     3c2:	70 e0       	ldi	r23, 0x00	; 0
     3c4:	8c e2       	ldi	r24, 0x2C	; 44
     3c6:	93 e0       	ldi	r25, 0x03	; 3
     3c8:	0e 94 74 0b 	call	0x16e8	; 0x16e8 <_ZN3LCD16write_FLASH_textEPKch>
	return val;
	
}
     3cc:	8c 2d       	mov	r24, r12
     3ce:	df 91       	pop	r29
     3d0:	cf 91       	pop	r28
     3d2:	1f 91       	pop	r17
     3d4:	0f 91       	pop	r16
     3d6:	ff 90       	pop	r15
     3d8:	ef 90       	pop	r14
     3da:	df 90       	pop	r13
     3dc:	cf 90       	pop	r12
     3de:	08 95       	ret

000003e0 <_ZL11eeprom_readh>:
	eeprom_write_byte(&e_sum[ew_pos],ew_var); // schreibe e_var an die Stelle e_sum[e_pos]
}

static uint8_t eeprom_read(uint8_t er_pos){
	uint8_t x;
	while (eeprom_is_ready() == 0){}
     3e0:	f9 99       	sbic	0x1f, 1	; 31
     3e2:	fe cf       	rjmp	.-4      	; 0x3e0 <_ZL11eeprom_readh>
	x = eeprom_read_byte(&e_sum[er_pos]);// lies ein Byte von der Stelle e_sum[er_pos]
     3e4:	90 e0       	ldi	r25, 0x00	; 0
     3e6:	80 50       	subi	r24, 0x00	; 0
     3e8:	90 40       	sbci	r25, 0x00	; 0
     3ea:	0c 94 7a 16 	jmp	0x2cf4	; 0x2cf4 <eeprom_read_byte>
	
	return x;
}
     3ee:	08 95       	ret

000003f0 <_Z41__static_initialization_and_destruction_0ii>:
	// when done, clear prompt and return value upon key press
	display.set_pos(2, 0);
	display.write_FLASH_text(setclear);
	return val;
	
}
     3f0:	ef 92       	push	r14
     3f2:	ff 92       	push	r15
     3f4:	0f 93       	push	r16
     3f6:	1f 93       	push	r17
     3f8:	cf 93       	push	r28
     3fa:	df 93       	push	r29
     3fc:	01 97       	sbiw	r24, 0x01	; 1
     3fe:	09 f0       	breq	.+2      	; 0x402 <__LOCK_REGION_LENGTH__+0x2>
     400:	6d c0       	rjmp	.+218    	; 0x4dc <__LOCK_REGION_LENGTH__+0xdc>
     402:	6f 3f       	cpi	r22, 0xFF	; 255
     404:	7f 4f       	sbci	r23, 0xFF	; 255
     406:	09 f0       	breq	.+2      	; 0x40a <__LOCK_REGION_LENGTH__+0xa>
     408:	69 c0       	rjmp	.+210    	; 0x4dc <__LOCK_REGION_LENGTH__+0xdc>
#define MAX_H	    ((uint8_t)(23))
#define MAX_MIN		((uint8_t)(59))
#define MAX_SEC		(MAX_MIN)


static DigiPortRaw leds(PA,SET_OUT_PORT);
     40a:	20 e0       	ldi	r18, 0x00	; 0
     40c:	4f ef       	ldi	r20, 0xFF	; 255
     40e:	60 e0       	ldi	r22, 0x00	; 0
     410:	84 e5       	ldi	r24, 0x54	; 84
     412:	93 e0       	ldi	r25, 0x03	; 3
     414:	11 d6       	rcall	.+3106   	; 0x1038 <_ZN11DigiPortRawC1Ehhh>

static DigiPortRaw keys(PK,SET_IN_PORT);
     416:	20 e0       	ldi	r18, 0x00	; 0
     418:	40 e0       	ldi	r20, 0x00	; 0
     41a:	69 e0       	ldi	r22, 0x09	; 9
     41c:	8e e4       	ldi	r24, 0x4E	; 78
     41e:	93 e0       	ldi	r25, 0x03	; 3
     420:	0b d6       	rcall	.+3094   	; 0x1038 <_ZN11DigiPortRawC1Ehhh>

static QuadEncoder quenc(PJ);
     422:	68 e0       	ldi	r22, 0x08	; 8
     424:	86 e3       	ldi	r24, 0x36	; 54
     426:	93 e0       	ldi	r25, 0x03	; 3
     428:	0e 94 fc 0d 	call	0x1bf8	; 0x1bf8 <_ZN11QuadEncoderC1Eh>
static LCD display(PC, LCD_Type_40x4, WRAPPING_OFF|BLINK_OFF| CURSOR_OFF | DISPLAY_ON);
     42c:	2c e0       	ldi	r18, 0x0C	; 12
     42e:	49 e0       	ldi	r20, 0x09	; 9
     430:	62 e0       	ldi	r22, 0x02	; 2
     432:	8c e2       	ldi	r24, 0x2C	; 44
     434:	93 e0       	ldi	r25, 0x03	; 3
     436:	0e 94 ee 0a 	call	0x15dc	; 0x15dc <_ZN3LCDC1Eh10LCD_Type_th>
static ADConverter humidADConverter(AD_CHAN_5);
     43a:	24 e6       	ldi	r18, 0x64	; 100
     43c:	31 e0       	ldi	r19, 0x01	; 1
     43e:	41 e0       	ldi	r20, 0x01	; 1
     440:	65 e0       	ldi	r22, 0x05	; 5
     442:	82 e2       	ldi	r24, 0x22	; 34
     444:	93 e0       	ldi	r25, 0x03	; 3
     446:	90 d4       	rcall	.+2336   	; 0xd68 <_ZN11ADConverterC1EhhPFijE>
static ADConverter tempADConverter(AD_CHAN_3);
     448:	24 e6       	ldi	r18, 0x64	; 100
     44a:	31 e0       	ldi	r19, 0x01	; 1
     44c:	41 e0       	ldi	r20, 0x01	; 1
     44e:	63 e0       	ldi	r22, 0x03	; 3
     450:	88 e1       	ldi	r24, 0x18	; 24
     452:	93 e0       	ldi	r25, 0x03	; 3
     454:	89 d4       	rcall	.+2322   	; 0xd68 <_ZN11ADConverterC1EhhPFijE>
}


//================================================================================================
// define all Objects 
static Timer16 ticker(TC1, ticker_cb);
     456:	e1 2c       	mov	r14, r1
     458:	f1 2c       	mov	r15, r1
     45a:	00 e0       	ldi	r16, 0x00	; 0
     45c:	10 e0       	ldi	r17, 0x00	; 0
     45e:	20 e0       	ldi	r18, 0x00	; 0
     460:	30 e0       	ldi	r19, 0x00	; 0
     462:	45 e6       	ldi	r20, 0x65	; 101
     464:	51 e0       	ldi	r21, 0x01	; 1
     466:	61 e0       	ldi	r22, 0x01	; 1
     468:	84 e0       	ldi	r24, 0x04	; 4
     46a:	93 e0       	ldi	r25, 0x03	; 3
     46c:	0e 94 39 13 	call	0x2672	; 0x2672 <_ZN7Timer16C1EhPFvvES1_S1_S1_>
		LCD* display_handle;
		
		inline void alarm_on(){alarm_status = true;}
	public:
		myClock(LCD* DisplayPort, uint8_t init_h = 0, uint8_t init_m = 0, uint8_t init_s = 0, bool alarm_status = false){
			display_handle = DisplayPort;
     470:	c9 ef       	ldi	r28, 0xF9	; 249
     472:	d2 e0       	ldi	r29, 0x02	; 2
     474:	0c e2       	ldi	r16, 0x2C	; 44
     476:	13 e0       	ldi	r17, 0x03	; 3
     478:	1a 87       	std	Y+10, r17	; 0x0a
     47a:	09 87       	std	Y+9, r16	; 0x09
			// result = condition ? value1 (if yes) : value2 (else);
			hour = (init_h <= MAX_H) ? init_h : 0;
     47c:	18 82       	st	Y, r1
			min = (init_m <= MAX_MIN) ? init_m : 0;
     47e:	19 82       	std	Y+1, r1	; 0x01
			sec = (init_s <= MAX_SEC) ? init_s : 0;
     480:	1a 82       	std	Y+2, r1	; 0x02
			this->alarm_status = alarm_status;
     482:	81 e0       	ldi	r24, 0x01	; 1
			alarm_text_status = false;
     484:	8e 83       	std	Y+6, r24	; 0x06
			alarm_hour = eeprom_read(0);
     486:	1f 82       	std	Y+7, r1	; 0x07
     488:	80 e0       	ldi	r24, 0x00	; 0
     48a:	aa df       	rcall	.-172    	; 0x3e0 <_ZL11eeprom_readh>
			alarm_min = eeprom_read(1);
     48c:	8b 83       	std	Y+3, r24	; 0x03
     48e:	81 e0       	ldi	r24, 0x01	; 1
     490:	a7 df       	rcall	.-178    	; 0x3e0 <_ZL11eeprom_readh>
     492:	8c 83       	std	Y+4, r24	; 0x04
			alarm_sec = eeprom_read(2);
     494:	82 e0       	ldi	r24, 0x02	; 2
     496:	a4 df       	rcall	.-184    	; 0x3e0 <_ZL11eeprom_readh>
     498:	8d 83       	std	Y+5, r24	; 0x05
     49a:	c6 ee       	ldi	r28, 0xE6	; 230
		ADConverter* converter_handle_temp;		//ca. 2,98V bei 25°C
		ADConverter* converter_handle_hum;
		bool alarm_status;
	public:
		mySensor(LCD* DisplayPort, ADConverter* ConverterTemp, ADConverter* ConverterHum, temperatur_t tt = celcius){
			display_handle = DisplayPort;
     49c:	d2 e0       	ldi	r29, 0x02	; 2
     49e:	19 83       	std	Y+1, r17	; 0x01
     4a0:	08 83       	st	Y, r16
     4a2:	88 e1       	ldi	r24, 0x18	; 24
			converter_handle_temp = ConverterTemp;
     4a4:	93 e0       	ldi	r25, 0x03	; 3
     4a6:	9f 87       	std	Y+15, r25	; 0x0f
     4a8:	8e 87       	std	Y+14, r24	; 0x0e
			converter_handle_hum = ConverterHum;
     4aa:	82 e2       	ldi	r24, 0x22	; 34
     4ac:	93 e0       	ldi	r25, 0x03	; 3
     4ae:	99 8b       	std	Y+17, r25	; 0x11
     4b0:	88 8b       	std	Y+16, r24	; 0x10
			temp_type = tt;
     4b2:	1c 86       	std	Y+12, r1	; 0x0c
			alarm_value_inC = eeprom_read(3);
     4b4:	83 e0       	ldi	r24, 0x03	; 3
     4b6:	94 df       	rcall	.-216    	; 0x3e0 <_ZL11eeprom_readh>
     4b8:	28 2f       	mov	r18, r24
     4ba:	30 e0       	ldi	r19, 0x00	; 0
     4bc:	39 87       	std	Y+9, r19	; 0x09
     4be:	28 87       	std	Y+8, r18	; 0x08
     4c0:	49 e0       	ldi	r20, 0x09	; 9
		alarm_status = true;
	}
}

inline uint16_t C_to_F(uint16_t val){
	return (val * 9/5) + 32;
     4c2:	42 9f       	mul	r20, r18
     4c4:	c0 01       	movw	r24, r0
     4c6:	43 9f       	mul	r20, r19
     4c8:	90 0d       	add	r25, r0
     4ca:	11 24       	eor	r1, r1
     4cc:	65 e0       	ldi	r22, 0x05	; 5
     4ce:	70 e0       	ldi	r23, 0x00	; 0
     4d0:	0e 94 3c 16 	call	0x2c78	; 0x2c78 <__udivmodhi4>
     4d4:	60 5e       	subi	r22, 0xE0	; 224
     4d6:	7f 4f       	sbci	r23, 0xFF	; 255
     4d8:	7b 87       	std	Y+11, r23	; 0x0b
			display_handle = DisplayPort;
			converter_handle_temp = ConverterTemp;
			converter_handle_hum = ConverterHum;
			temp_type = tt;
			alarm_value_inC = eeprom_read(3);
			alarm_value_inF = C_to_F(alarm_value_inC);
     4da:	6a 87       	std	Y+10, r22	; 0x0a
     4dc:	df 91       	pop	r29
	// when done, clear prompt and return value upon key press
	display.set_pos(2, 0);
	display.write_FLASH_text(setclear);
	return val;
	
}
     4de:	cf 91       	pop	r28
     4e0:	1f 91       	pop	r17
     4e2:	0f 91       	pop	r16
     4e4:	ff 90       	pop	r15
     4e6:	ef 90       	pop	r14
     4e8:	08 95       	ret

000004ea <_Z12eeprom_writehh>:
     4ea:	f9 99       	sbic	0x1f, 1	; 31

// Reservierung Platz fur Zahlen im EEPROM: alarm_h(0), alarm_m(1), alarm_s(2), alarm_value "Temp" (3)
uint8_t EEMEM e_sum[4];

void eeprom_write(uint8_t ew_var, uint8_t ew_pos){
	while (eeprom_is_ready()==0){}
     4ec:	fe cf       	rjmp	.-4      	; 0x4ea <_Z12eeprom_writehh>
	eeprom_write_byte(&e_sum[ew_pos],ew_var); // schreibe e_var an die Stelle e_sum[e_pos]
     4ee:	26 2f       	mov	r18, r22
     4f0:	30 e0       	ldi	r19, 0x00	; 0
     4f2:	68 2f       	mov	r22, r24
     4f4:	c9 01       	movw	r24, r18
     4f6:	80 50       	subi	r24, 0x00	; 0
     4f8:	90 40       	sbci	r25, 0x00	; 0
     4fa:	0c 94 82 16 	jmp	0x2d04	; 0x2d04 <eeprom_write_byte>
     4fe:	08 95       	ret

00000500 <_ZN7myClock4showEv>:
			}
		}
	}
}

void myClock::show(){
     500:	cf 93       	push	r28
     502:	df 93       	push	r29
     504:	ec 01       	movw	r28, r24
	switch(update){
     506:	88 85       	ldd	r24, Y+8	; 0x08
     508:	81 30       	cpi	r24, 0x01	; 1
     50a:	99 f0       	breq	.+38     	; 0x532 <_ZN7myClock4showEv+0x32>
     50c:	28 f0       	brcs	.+10     	; 0x518 <_ZN7myClock4showEv+0x18>
     50e:	82 30       	cpi	r24, 0x02	; 2
     510:	e9 f0       	breq	.+58     	; 0x54c <_ZN7myClock4showEv+0x4c>
     512:	83 30       	cpi	r24, 0x03	; 3
     514:	41 f1       	breq	.+80     	; 0x566 <_ZN7myClock4showEv+0x66>
     516:	41 c0       	rjmp	.+130    	; 0x59a <_ZN7myClock4showEv+0x9a>
		case none:	break;
		// The order below = If uhour, updates all h,m,s. If sec, only update sec. 
		case uhour:		display_handle->set_pos(1, 0);
     518:	40 e0       	ldi	r20, 0x00	; 0
     51a:	61 e0       	ldi	r22, 0x01	; 1
     51c:	89 85       	ldd	r24, Y+9	; 0x09
     51e:	9a 85       	ldd	r25, Y+10	; 0x0a
     520:	79 d7       	rcall	.+3826   	; 0x1414 <_ZN3LCD7set_posEhh>
						display_handle->write_number(hour, 2, '0');
     522:	68 81       	ld	r22, Y
     524:	70 e0       	ldi	r23, 0x00	; 0
     526:	20 e3       	ldi	r18, 0x30	; 48
     528:	42 e0       	ldi	r20, 0x02	; 2
     52a:	89 85       	ldd	r24, Y+9	; 0x09
     52c:	9a 85       	ldd	r25, Y+10	; 0x0a
     52e:	0e 94 0d 0c 	call	0x181a	; 0x181a <_ZN3LCD12write_numberEihc>
		case umin:		display_handle->set_pos(1, 3);
     532:	43 e0       	ldi	r20, 0x03	; 3
     534:	61 e0       	ldi	r22, 0x01	; 1
     536:	89 85       	ldd	r24, Y+9	; 0x09
     538:	9a 85       	ldd	r25, Y+10	; 0x0a
     53a:	6c d7       	rcall	.+3800   	; 0x1414 <_ZN3LCD7set_posEhh>
						display_handle->write_number(min, 2, '0');
     53c:	69 81       	ldd	r22, Y+1	; 0x01
     53e:	70 e0       	ldi	r23, 0x00	; 0
     540:	20 e3       	ldi	r18, 0x30	; 48
     542:	42 e0       	ldi	r20, 0x02	; 2
     544:	89 85       	ldd	r24, Y+9	; 0x09
     546:	9a 85       	ldd	r25, Y+10	; 0x0a
     548:	0e 94 0d 0c 	call	0x181a	; 0x181a <_ZN3LCD12write_numberEihc>
		case usec:		display_handle->set_pos(1, 6);
     54c:	46 e0       	ldi	r20, 0x06	; 6
     54e:	61 e0       	ldi	r22, 0x01	; 1
     550:	89 85       	ldd	r24, Y+9	; 0x09
     552:	9a 85       	ldd	r25, Y+10	; 0x0a
     554:	5f d7       	rcall	.+3774   	; 0x1414 <_ZN3LCD7set_posEhh>
						display_handle->write_number(sec, 2, '0');
     556:	6a 81       	ldd	r22, Y+2	; 0x02
     558:	70 e0       	ldi	r23, 0x00	; 0
     55a:	20 e3       	ldi	r18, 0x30	; 48
     55c:	42 e0       	ldi	r20, 0x02	; 2
     55e:	89 85       	ldd	r24, Y+9	; 0x09
     560:	9a 85       	ldd	r25, Y+10	; 0x0a
     562:	0e 94 0d 0c 	call	0x181a	; 0x181a <_ZN3LCD12write_numberEihc>
		case ualarm:	display_handle->set_pos(1, 12);
     566:	4c e0       	ldi	r20, 0x0C	; 12
     568:	61 e0       	ldi	r22, 0x01	; 1
     56a:	89 85       	ldd	r24, Y+9	; 0x09
     56c:	9a 85       	ldd	r25, Y+10	; 0x0a
     56e:	52 d7       	rcall	.+3748   	; 0x1414 <_ZN3LCD7set_posEhh>
						display_handle->write_number(alarm_hour, 2, '0');
     570:	6b 81       	ldd	r22, Y+3	; 0x03
     572:	70 e0       	ldi	r23, 0x00	; 0
     574:	20 e3       	ldi	r18, 0x30	; 48
     576:	42 e0       	ldi	r20, 0x02	; 2
     578:	89 85       	ldd	r24, Y+9	; 0x09
     57a:	9a 85       	ldd	r25, Y+10	; 0x0a
     57c:	0e 94 0d 0c 	call	0x181a	; 0x181a <_ZN3LCD12write_numberEihc>
						display_handle->set_pos(1, 15);
     580:	4f e0       	ldi	r20, 0x0F	; 15
     582:	61 e0       	ldi	r22, 0x01	; 1
     584:	89 85       	ldd	r24, Y+9	; 0x09
     586:	9a 85       	ldd	r25, Y+10	; 0x0a
     588:	45 d7       	rcall	.+3722   	; 0x1414 <_ZN3LCD7set_posEhh>
						display_handle->write_number(alarm_min, 2, '0');
     58a:	6c 81       	ldd	r22, Y+4	; 0x04
     58c:	70 e0       	ldi	r23, 0x00	; 0
     58e:	20 e3       	ldi	r18, 0x30	; 48
     590:	42 e0       	ldi	r20, 0x02	; 2
     592:	89 85       	ldd	r24, Y+9	; 0x09
     594:	9a 85       	ldd	r25, Y+10	; 0x0a
     596:	0e 94 0d 0c 	call	0x181a	; 0x181a <_ZN3LCD12write_numberEihc>
		
	}
	update = none;
     59a:	84 e0       	ldi	r24, 0x04	; 4
     59c:	88 87       	std	Y+8, r24	; 0x08
};
     59e:	df 91       	pop	r29
     5a0:	cf 91       	pop	r28
     5a2:	08 95       	ret

000005a4 <_ZN8mySensor4showEv>:
	}
	alarm_status = true;
	eeprom_write(alarm_value_inC, 3);
}

void mySensor::show(){
     5a4:	cf 93       	push	r28
     5a6:	df 93       	push	r29
     5a8:	ec 01       	movw	r28, r24
	switch(update){
     5aa:	8d 85       	ldd	r24, Y+13	; 0x0d
     5ac:	88 23       	and	r24, r24
     5ae:	19 f0       	breq	.+6      	; 0x5b6 <_ZN8mySensor4showEv+0x12>
     5b0:	81 30       	cpi	r24, 0x01	; 1
     5b2:	99 f1       	breq	.+102    	; 0x61a <_ZN8mySensor4showEv+0x76>
     5b4:	3f c0       	rjmp	.+126    	; 0x634 <_ZN8mySensor4showEv+0x90>
		case utemp:		display_handle->set_pos(1,22);
     5b6:	46 e1       	ldi	r20, 0x16	; 22
     5b8:	61 e0       	ldi	r22, 0x01	; 1
     5ba:	88 81       	ld	r24, Y
     5bc:	99 81       	ldd	r25, Y+1	; 0x01
     5be:	2a d7       	rcall	.+3668   	; 0x1414 <_ZN3LCD7set_posEhh>
						if (celcius == temp_type){
     5c0:	8c 85       	ldd	r24, Y+12	; 0x0c
     5c2:	81 11       	cpse	r24, r1
     5c4:	09 c0       	rjmp	.+18     	; 0x5d8 <_ZN8mySensor4showEv+0x34>
							display_handle->write_number(temp_inC, 2, '0');
     5c6:	6a 81       	ldd	r22, Y+2	; 0x02
     5c8:	7b 81       	ldd	r23, Y+3	; 0x03
     5ca:	20 e3       	ldi	r18, 0x30	; 48
     5cc:	42 e0       	ldi	r20, 0x02	; 2
     5ce:	88 81       	ld	r24, Y
     5d0:	99 81       	ldd	r25, Y+1	; 0x01
     5d2:	0e 94 0d 0c 	call	0x181a	; 0x181a <_ZN3LCD12write_numberEihc>
     5d6:	08 c0       	rjmp	.+16     	; 0x5e8 <_ZN8mySensor4showEv+0x44>
						}else{
							display_handle->write_number(temp_inF, 2, '0');
     5d8:	6c 81       	ldd	r22, Y+4	; 0x04
     5da:	7d 81       	ldd	r23, Y+5	; 0x05
     5dc:	20 e3       	ldi	r18, 0x30	; 48
     5de:	42 e0       	ldi	r20, 0x02	; 2
     5e0:	88 81       	ld	r24, Y
     5e2:	99 81       	ldd	r25, Y+1	; 0x01
     5e4:	0e 94 0d 0c 	call	0x181a	; 0x181a <_ZN3LCD12write_numberEihc>
						}
						
						display_handle->set_pos(1,28);
     5e8:	4c e1       	ldi	r20, 0x1C	; 28
     5ea:	61 e0       	ldi	r22, 0x01	; 1
     5ec:	88 81       	ld	r24, Y
     5ee:	99 81       	ldd	r25, Y+1	; 0x01
     5f0:	11 d7       	rcall	.+3618   	; 0x1414 <_ZN3LCD7set_posEhh>
						if(celcius == temp_type){
     5f2:	8c 85       	ldd	r24, Y+12	; 0x0c
     5f4:	81 11       	cpse	r24, r1
     5f6:	09 c0       	rjmp	.+18     	; 0x60a <_ZN8mySensor4showEv+0x66>
							display_handle->write_number(alarm_value_inC, 3, '0');
     5f8:	68 85       	ldd	r22, Y+8	; 0x08
     5fa:	79 85       	ldd	r23, Y+9	; 0x09
     5fc:	20 e3       	ldi	r18, 0x30	; 48
     5fe:	43 e0       	ldi	r20, 0x03	; 3
     600:	88 81       	ld	r24, Y
     602:	99 81       	ldd	r25, Y+1	; 0x01
     604:	0e 94 0d 0c 	call	0x181a	; 0x181a <_ZN3LCD12write_numberEihc>
     608:	08 c0       	rjmp	.+16     	; 0x61a <_ZN8mySensor4showEv+0x76>
						}else{
							display_handle->write_number(alarm_value_inF, 3, '0');
     60a:	6a 85       	ldd	r22, Y+10	; 0x0a
     60c:	7b 85       	ldd	r23, Y+11	; 0x0b
     60e:	20 e3       	ldi	r18, 0x30	; 48
     610:	43 e0       	ldi	r20, 0x03	; 3
     612:	88 81       	ld	r24, Y
     614:	99 81       	ldd	r25, Y+1	; 0x01
     616:	0e 94 0d 0c 	call	0x181a	; 0x181a <_ZN3LCD12write_numberEihc>
						}
						
						
		case uhumid:	display_handle->set_pos(1,35);
     61a:	43 e2       	ldi	r20, 0x23	; 35
     61c:	61 e0       	ldi	r22, 0x01	; 1
     61e:	88 81       	ld	r24, Y
     620:	99 81       	ldd	r25, Y+1	; 0x01
     622:	f8 d6       	rcall	.+3568   	; 0x1414 <_ZN3LCD7set_posEhh>
						display_handle->write_number(humid, 2);
     624:	6e 81       	ldd	r22, Y+6	; 0x06
     626:	7f 81       	ldd	r23, Y+7	; 0x07
     628:	20 e2       	ldi	r18, 0x20	; 32
     62a:	42 e0       	ldi	r20, 0x02	; 2
     62c:	88 81       	ld	r24, Y
     62e:	99 81       	ldd	r25, Y+1	; 0x01
     630:	0e 94 0d 0c 	call	0x181a	; 0x181a <_ZN3LCD12write_numberEihc>
						break;
						
		case nothing:	break;
						
	}
	update = nothing;
     634:	82 e0       	ldi	r24, 0x02	; 2
     636:	8d 87       	std	Y+13, r24	; 0x0d
}
     638:	df 91       	pop	r29
     63a:	cf 91       	pop	r28
     63c:	08 95       	ret

0000063e <main>:



int main(void)
{
	sei();
     63e:	78 94       	sei
	ticker.start_ms(1000);
     640:	ee 24       	eor	r14, r14
     642:	ea 94       	dec	r14
     644:	00 e0       	ldi	r16, 0x00	; 0
     646:	10 e0       	ldi	r17, 0x00	; 0
     648:	20 e0       	ldi	r18, 0x00	; 0
     64a:	30 e0       	ldi	r19, 0x00	; 0
     64c:	40 e0       	ldi	r20, 0x00	; 0
     64e:	50 e0       	ldi	r21, 0x00	; 0
     650:	68 ee       	ldi	r22, 0xE8	; 232
     652:	73 e0       	ldi	r23, 0x03	; 3
     654:	84 e0       	ldi	r24, 0x04	; 4
     656:	93 e0       	ldi	r25, 0x03	; 3
     658:	0e 94 16 14 	call	0x282c	; 0x282c <_ZN7Timer168start_msEjjjjh>
	display.write_FLASH_text(headline);
     65c:	40 e0       	ldi	r20, 0x00	; 0
     65e:	61 e9       	ldi	r22, 0x91	; 145
     660:	71 e0       	ldi	r23, 0x01	; 1
     662:	8c e2       	ldi	r24, 0x2C	; 44
     664:	93 e0       	ldi	r25, 0x03	; 3
     666:	0e 94 74 0b 	call	0x16e8	; 0x16e8 <_ZN3LCD16write_FLASH_textEPKch>
	display.set_pos(1,0);
     66a:	40 e0       	ldi	r20, 0x00	; 0
     66c:	61 e0       	ldi	r22, 0x01	; 1
     66e:	8c e2       	ldi	r24, 0x2C	; 44
     670:	93 e0       	ldi	r25, 0x03	; 3
     672:	d0 d6       	rcall	.+3488   	; 0x1414 <_ZN3LCD7set_posEhh>
	display.write_FLASH_text(dataline);
     674:	40 e0       	ldi	r20, 0x00	; 0
     676:	68 e6       	ldi	r22, 0x68	; 104
     678:	71 e0       	ldi	r23, 0x01	; 1
     67a:	8c e2       	ldi	r24, 0x2C	; 44
     67c:	93 e0       	ldi	r25, 0x03	; 3
     67e:	0e 94 74 0b 	call	0x16e8	; 0x16e8 <_ZN3LCD16write_FLASH_textEPKch>
	while (1){
		if (do_update) {
     682:	10 91 16 03 	lds	r17, 0x0316	; 0x800316 <do_update>
     686:	11 23       	and	r17, r17
     688:	09 f4       	brne	.+2      	; 0x68c <main+0x4e>
     68a:	34 c1       	rjmp	.+616    	; 0x8f4 <main+0x2b6>
    /*! \brief Invertiere die durch bits spezifizierten Bits des Ports.
		\param [in] bits Bitmuster in active-high Logik. Default 0xFF. Bitpositionen, die
		            beim Port zur Eingabe konfiguriert sind, werden dabei ignoriert.
	*/
	virtual inline void toggle (uint8_t bits=0xFF) {
		CRITICAL_SECTION { 
     68c:	2f b7       	in	r18, 0x3f	; 63
    return 1;
}

static __inline__ uint8_t __iCliRetVal(void)
{
    cli();
     68e:	f8 94       	cli
     690:	81 e0       	ldi	r24, 0x01	; 1
     692:	88 23       	and	r24, r24
     694:	71 f0       	breq	.+28     	; 0x6b2 <main+0x74>
			*(base + OUT_OFFSET) ^= (uint8_t)(OUT_MASK & bits);
     696:	a4 e5       	ldi	r26, 0x54	; 84
     698:	b3 e0       	ldi	r27, 0x03	; 3
     69a:	12 96       	adiw	r26, 0x02	; 2
     69c:	ed 91       	ld	r30, X+
     69e:	fc 91       	ld	r31, X
     6a0:	13 97       	sbiw	r26, 0x03	; 3
     6a2:	92 81       	ldd	r25, Z+2	; 0x02
     6a4:	14 96       	adiw	r26, 0x04	; 4
     6a6:	8c 91       	ld	r24, X
     6a8:	80 78       	andi	r24, 0x80	; 128
     6aa:	89 27       	eor	r24, r25
     6ac:	82 83       	std	Z+2, r24	; 0x02
    /*! \brief Invertiere die durch bits spezifizierten Bits des Ports.
		\param [in] bits Bitmuster in active-high Logik. Default 0xFF. Bitpositionen, die
		            beim Port zur Eingabe konfiguriert sind, werden dabei ignoriert.
	*/
	virtual inline void toggle (uint8_t bits=0xFF) {
		CRITICAL_SECTION { 
     6ae:	80 e0       	ldi	r24, 0x00	; 0
     6b0:	f0 cf       	rjmp	.-32     	; 0x692 <main+0x54>
    (void)__s;
}

static __inline__ void __iRestore(const  uint8_t *__s)
{
    SREG = *__s;
     6b2:	2f bf       	out	0x3f, r18	; 63
		display_handle->write_FLASH_text(text_clear);
	}
}

inline void myClock::wecker(){
	if (alarm_text_status){
     6b4:	80 91 00 03 	lds	r24, 0x0300	; 0x800300 <_ZL8theClock+0x7>
     6b8:	88 23       	and	r24, r24
     6ba:	a9 f0       	breq	.+42     	; 0x6e6 <main+0xa8>
		display_handle->set_pos(3, 0);
     6bc:	0f 2e       	mov	r0, r31
     6be:	f9 ef       	ldi	r31, 0xF9	; 249
     6c0:	af 2e       	mov	r10, r31
     6c2:	f2 e0       	ldi	r31, 0x02	; 2
     6c4:	bf 2e       	mov	r11, r31
     6c6:	f0 2d       	mov	r31, r0
     6c8:	40 e0       	ldi	r20, 0x00	; 0
     6ca:	63 e0       	ldi	r22, 0x03	; 3
     6cc:	f5 01       	movw	r30, r10
     6ce:	81 85       	ldd	r24, Z+9	; 0x09
     6d0:	92 85       	ldd	r25, Z+10	; 0x0a
     6d2:	a0 d6       	rcall	.+3392   	; 0x1414 <_ZN3LCD7set_posEhh>
		display_handle->write_FLASH_text(alarm_text);
     6d4:	40 e0       	ldi	r20, 0x00	; 0
     6d6:	6d e5       	ldi	r22, 0x5D	; 93
     6d8:	71 e0       	ldi	r23, 0x01	; 1
     6da:	f5 01       	movw	r30, r10
     6dc:	81 85       	ldd	r24, Z+9	; 0x09
     6de:	92 85       	ldd	r25, Z+10	; 0x0a
     6e0:	0e 94 74 0b 	call	0x16e8	; 0x16e8 <_ZN3LCD16write_FLASH_textEPKch>
     6e4:	1d c0       	rjmp	.+58     	; 0x720 <main+0xe2>
	}
	else if (alarm_status){
     6e6:	80 91 ff 02 	lds	r24, 0x02FF	; 0x8002ff <_ZL8theClock+0x6>
     6ea:	88 23       	and	r24, r24
     6ec:	81 f0       	breq	.+32     	; 0x70e <main+0xd0>
		if (alarm_hour == hour){
     6ee:	e9 ef       	ldi	r30, 0xF9	; 249
     6f0:	f2 e0       	ldi	r31, 0x02	; 2
     6f2:	93 81       	ldd	r25, Z+3	; 0x03
     6f4:	80 81       	ld	r24, Z
     6f6:	98 13       	cpse	r25, r24
     6f8:	13 c0       	rjmp	.+38     	; 0x720 <main+0xe2>
			if(alarm_min == min){
     6fa:	94 81       	ldd	r25, Z+4	; 0x04
     6fc:	81 81       	ldd	r24, Z+1	; 0x01
     6fe:	98 13       	cpse	r25, r24
     700:	0f c0       	rjmp	.+30     	; 0x720 <main+0xe2>
				alarm_text_status = true;
     702:	81 e0       	ldi	r24, 0x01	; 1
     704:	80 93 00 03 	sts	0x0300, r24	; 0x800300 <_ZL8theClock+0x7>
				do_blink = true;
     708:	80 93 17 03 	sts	0x0317, r24	; 0x800317 <do_blink>
     70c:	09 c0       	rjmp	.+18     	; 0x720 <main+0xe2>
			}
		}
	}
	else if (alarm_min > min){
     70e:	e9 ef       	ldi	r30, 0xF9	; 249
     710:	f2 e0       	ldi	r31, 0x02	; 2
     712:	94 81       	ldd	r25, Z+4	; 0x04
     714:	81 81       	ldd	r24, Z+1	; 0x01
     716:	89 17       	cp	r24, r25
     718:	18 f4       	brcc	.+6      	; 0x720 <main+0xe2>
		alarm_status = true;
     71a:	81 e0       	ldi	r24, 0x01	; 1
     71c:	80 93 ff 02 	sts	0x02FF, r24	; 0x8002ff <_ZL8theClock+0x6>
	display.write_FLASH_text(dataline);
	while (1){
		if (do_update) {
			leds.toggle(0b10000000);
			theClock.wecker();
			theClock.show();
     720:	89 ef       	ldi	r24, 0xF9	; 249
     722:	92 e0       	ldi	r25, 0x02	; 2
     724:	ed de       	rcall	.-550    	; 0x500 <_ZN7myClock4showEv>
			if(1 > sensor_delay){
     726:	80 91 01 02 	lds	r24, 0x0201	; 0x800201 <sensor_delay>
     72a:	81 11       	cpse	r24, r1
     72c:	65 c0       	rjmp	.+202    	; 0x7f8 <main+0x1ba>
			return (celcius == temp_type) ? alarm_value_inC : alarm_value_inF;
		}
		
		void value_update(){
			uint16_t input_temp = 0;
			if(converter_handle_hum->value_available()){
     72e:	e0 91 f6 02 	lds	r30, 0x02F6	; 0x8002f6 <__data_end+0x10>
     732:	f0 91 f7 02 	lds	r31, 0x02F7	; 0x8002f7 <__data_end+0x11>
	    Im Modus FREE_RUNNING kann die Verfuegbarkeit eines neuen gewandelten
	    Wertes abgefragt werden. Im Polling Modus liefert die Funktion immer
	    true - ist also unnoetig sie aufzurufen, da get_value() in jedem Fall immer eine neue
	    komplette Konversion vornimmt.
	*/
	bool value_available() {return (FREE_RUNNING == mode) ? new_value : true;};
     736:	00 91 1b 02 	lds	r16, 0x021B	; 0x80021b <_ZN11ADConverter4modeE>
     73a:	01 11       	cpse	r16, r1
     73c:	02 c0       	rjmp	.+4      	; 0x742 <main+0x104>
     73e:	95 81       	ldd	r25, Z+5	; 0x05
     740:	01 c0       	rjmp	.+2      	; 0x744 <main+0x106>
     742:	91 2f       	mov	r25, r17
     744:	99 23       	and	r25, r25
				humid = converter_handle_hum->hum_convert(converter_handle_hum->get_value()); 
     746:	91 f0       	breq	.+36     	; 0x76c <main+0x12e>
     748:	cf 01       	movw	r24, r30
     74a:	62 d3       	rcall	.+1732   	; 0xe10 <_ZN11ADConverter9get_valueEv>
		\retval korrigierter Sensorwert nun mit Vorzeichen. Beachte dass der Wert negativ sein kann.
		\param [in] adc_val der rohe Sensorwert als unsigned 16 Bit
		
		Diese Funktion ist fuer den Feuchtesensor HIH 4010-001 verwendbar (dem Konstruktor als dritten Parameter uebergeben).
	*/ 
	static int16_t hum_convert (uint16_t adc_val) {return (adc_val / 6) - 27;};
     74c:	9c 01       	movw	r18, r24
     74e:	ab ea       	ldi	r26, 0xAB	; 171
     750:	ba ea       	ldi	r27, 0xAA	; 170
     752:	0e 94 63 16 	call	0x2cc6	; 0x2cc6 <__umulhisi3>
     756:	96 95       	lsr	r25
     758:	87 95       	ror	r24
     75a:	96 95       	lsr	r25
     75c:	87 95       	ror	r24
     75e:	4b 97       	sbiw	r24, 0x1b	; 27
     760:	e6 ee       	ldi	r30, 0xE6	; 230
     762:	f2 e0       	ldi	r31, 0x02	; 2
     764:	97 83       	std	Z+7, r25	; 0x07
     766:	86 83       	std	Z+6, r24	; 0x06
				update = uhumid;
     768:	81 e0       	ldi	r24, 0x01	; 1
     76a:	85 87       	std	Z+13, r24	; 0x0d
			}
			if(converter_handle_temp->value_available()){
     76c:	e0 91 f4 02 	lds	r30, 0x02F4	; 0x8002f4 <__data_end+0xe>
     770:	f0 91 f5 02 	lds	r31, 0x02F5	; 0x8002f5 <__data_end+0xf>
	    Im Modus FREE_RUNNING kann die Verfuegbarkeit eines neuen gewandelten
	    Wertes abgefragt werden. Im Polling Modus liefert die Funktion immer
	    true - ist also unnoetig sie aufzurufen, da get_value() in jedem Fall immer eine neue
	    komplette Konversion vornimmt.
	*/
	bool value_available() {return (FREE_RUNNING == mode) ? new_value : true;};
     774:	01 11       	cpse	r16, r1
     776:	01 c0       	rjmp	.+2      	; 0x77a <main+0x13c>
     778:	15 81       	ldd	r17, Z+5	; 0x05
     77a:	11 23       	and	r17, r17
				input_temp = converter_handle_temp->temp_convert(converter_handle_temp->get_value());
     77c:	d1 f1       	breq	.+116    	; 0x7f2 <main+0x1b4>
     77e:	cf 01       	movw	r24, r30
     780:	47 d3       	rcall	.+1678   	; 0xe10 <_ZN11ADConverter9get_valueEv>
		
		Diese Funktion ist fuer den Temperatursensor LM335 verwendbar (dem Konstruktor als dritten Parameter uebergeben).
		Da die Temperatursensorenim Labor nicht einheitlich kalibriert sind, sind die Resultatwerte nur ungefaehr passend.
	*/ 
    //static int16_t temp_convert (uint16_t adc_val) {return (adc_val / 2) - 210;};
    static int16_t temp_convert (uint16_t adc_val) {return (adc_val / 20); };
     782:	9c 01       	movw	r18, r24
     784:	ad ec       	ldi	r26, 0xCD	; 205
     786:	bc ec       	ldi	r27, 0xCC	; 204
     788:	0e 94 63 16 	call	0x2cc6	; 0x2cc6 <__umulhisi3>
     78c:	ac 01       	movw	r20, r24
     78e:	52 95       	swap	r21
     790:	42 95       	swap	r20
     792:	4f 70       	andi	r20, 0x0F	; 15
     794:	45 27       	eor	r20, r21
     796:	5f 70       	andi	r21, 0x0F	; 15
     798:	45 27       	eor	r20, r21
		alarm_status = true;
	}
}

inline uint16_t C_to_F(uint16_t val){
	return (val * 9/5) + 32;
     79a:	9a 01       	movw	r18, r20
     79c:	22 0f       	add	r18, r18
     79e:	33 1f       	adc	r19, r19
     7a0:	22 0f       	add	r18, r18
     7a2:	33 1f       	adc	r19, r19
     7a4:	22 0f       	add	r18, r18
     7a6:	33 1f       	adc	r19, r19
     7a8:	24 0f       	add	r18, r20
     7aa:	35 1f       	adc	r19, r21
     7ac:	0e 94 63 16 	call	0x2cc6	; 0x2cc6 <__umulhisi3>
     7b0:	96 95       	lsr	r25
     7b2:	87 95       	ror	r24
     7b4:	96 95       	lsr	r25
     7b6:	87 95       	ror	r24
     7b8:	80 96       	adiw	r24, 0x20	; 32
				humid = converter_handle_hum->hum_convert(converter_handle_hum->get_value()); 
				update = uhumid;
			}
			if(converter_handle_temp->value_available()){
				input_temp = converter_handle_temp->temp_convert(converter_handle_temp->get_value());
				temp_inF = C_to_F(input_temp);
     7ba:	e6 ee       	ldi	r30, 0xE6	; 230
     7bc:	f2 e0       	ldi	r31, 0x02	; 2
     7be:	95 83       	std	Z+5, r25	; 0x05
     7c0:	84 83       	std	Z+4, r24	; 0x04
				temp_inC = input_temp;
     7c2:	53 83       	std	Z+3, r21	; 0x03
     7c4:	42 83       	std	Z+2, r20	; 0x02
     7c6:	2f b7       	in	r18, 0x3f	; 63
    return 1;
}

static __inline__ uint8_t __iCliRetVal(void)
{
    cli();
     7c8:	f8 94       	cli
     7ca:	81 e0       	ldi	r24, 0x01	; 1
     7cc:	88 23       	and	r24, r24
     7ce:	71 f0       	breq	.+28     	; 0x7ec <main+0x1ae>
			*(base + OUT_OFFSET) ^= (uint8_t)(OUT_MASK & bits);
     7d0:	a4 e5       	ldi	r26, 0x54	; 84
     7d2:	b3 e0       	ldi	r27, 0x03	; 3
     7d4:	12 96       	adiw	r26, 0x02	; 2
     7d6:	ed 91       	ld	r30, X+
     7d8:	fc 91       	ld	r31, X
     7da:	13 97       	sbiw	r26, 0x03	; 3
     7dc:	92 81       	ldd	r25, Z+2	; 0x02
     7de:	14 96       	adiw	r26, 0x04	; 4
     7e0:	8c 91       	ld	r24, X
     7e2:	81 70       	andi	r24, 0x01	; 1
     7e4:	89 27       	eor	r24, r25
     7e6:	82 83       	std	Z+2, r24	; 0x02
    /*! \brief Invertiere die durch bits spezifizierten Bits des Ports.
		\param [in] bits Bitmuster in active-high Logik. Default 0xFF. Bitpositionen, die
		            beim Port zur Eingabe konfiguriert sind, werden dabei ignoriert.
	*/
	virtual inline void toggle (uint8_t bits=0xFF) {
		CRITICAL_SECTION { 
     7e8:	80 e0       	ldi	r24, 0x00	; 0
     7ea:	f0 cf       	rjmp	.-32     	; 0x7cc <main+0x18e>
    (void)__s;
}

static __inline__ void __iRestore(const  uint8_t *__s)
{
    SREG = *__s;
     7ec:	2f bf       	out	0x3f, r18	; 63

				leds.toggle(0b00000001);
				update = utemp;
     7ee:	10 92 f3 02 	sts	0x02F3, r1	; 0x8002f3 <__data_end+0xd>
			leds.toggle(0b10000000);
			theClock.wecker();
			theClock.show();
			if(1 > sensor_delay){
				theSensors.value_update();
				sensor_delay = 5;
     7f2:	85 e0       	ldi	r24, 0x05	; 5
     7f4:	80 93 01 02 	sts	0x0201, r24	; 0x800201 <sensor_delay>
		
	}
} 

inline void mySensor::temp_alarm(){
	if (alarm_status){
     7f8:	80 91 f8 02 	lds	r24, 0x02F8	; 0x8002f8 <__data_end+0x12>
     7fc:	88 23       	and	r24, r24
     7fe:	d1 f0       	breq	.+52     	; 0x834 <main+0x1f6>
		if(temp_inC > alarm_value_inC){
     800:	e6 ee       	ldi	r30, 0xE6	; 230
     802:	f2 e0       	ldi	r31, 0x02	; 2
     804:	22 81       	ldd	r18, Z+2	; 0x02
     806:	33 81       	ldd	r19, Z+3	; 0x03
     808:	80 85       	ldd	r24, Z+8	; 0x08
     80a:	91 85       	ldd	r25, Z+9	; 0x09
     80c:	82 17       	cp	r24, r18
     80e:	93 07       	cpc	r25, r19
     810:	e8 f4       	brcc	.+58     	; 0x84c <main+0x20e>
			do_blink = true;
     812:	81 e0       	ldi	r24, 0x01	; 1
     814:	80 93 17 03 	sts	0x0317, r24	; 0x800317 <do_blink>
			display_handle->set_pos(3, 19);
     818:	8f 01       	movw	r16, r30
     81a:	43 e1       	ldi	r20, 0x13	; 19
     81c:	63 e0       	ldi	r22, 0x03	; 3
     81e:	80 81       	ld	r24, Z
     820:	91 81       	ldd	r25, Z+1	; 0x01
     822:	f8 d5       	rcall	.+3056   	; 0x1414 <_ZN3LCD7set_posEhh>
			display_handle->write_FLASH_text(temp_text);
     824:	40 e0       	ldi	r20, 0x00	; 0
     826:	62 e5       	ldi	r22, 0x52	; 82
     828:	71 e0       	ldi	r23, 0x01	; 1
     82a:	f8 01       	movw	r30, r16
     82c:	80 81       	ld	r24, Z
     82e:	91 81       	ldd	r25, Z+1	; 0x01
     830:	5b d7       	rcall	.+3766   	; 0x16e8 <_ZN3LCD16write_FLASH_textEPKch>
     832:	0c c0       	rjmp	.+24     	; 0x84c <main+0x20e>
			
		}
	}
	else if(temp_inC < alarm_value_inC){
     834:	e6 ee       	ldi	r30, 0xE6	; 230
     836:	f2 e0       	ldi	r31, 0x02	; 2
     838:	22 81       	ldd	r18, Z+2	; 0x02
     83a:	33 81       	ldd	r19, Z+3	; 0x03
     83c:	80 85       	ldd	r24, Z+8	; 0x08
     83e:	91 85       	ldd	r25, Z+9	; 0x09
     840:	28 17       	cp	r18, r24
     842:	39 07       	cpc	r19, r25
		alarm_status = true;
     844:	18 f4       	brcc	.+6      	; 0x84c <main+0x20e>
     846:	81 e0       	ldi	r24, 0x01	; 1
     848:	80 93 f8 02 	sts	0x02F8, r24	; 0x8002f8 <__data_end+0x12>
			if(1 > sensor_delay){
				theSensors.value_update();
				sensor_delay = 5;
			}
			theSensors.temp_alarm();
			theSensors.show();
     84c:	86 ee       	ldi	r24, 0xE6	; 230
     84e:	92 e0       	ldi	r25, 0x02	; 2
     850:	a9 de       	rcall	.-686    	; 0x5a4 <_ZN8mySensor4showEv>
inline uint16_t F_to_C(uint16_t val){
	return (val - 32) * 5/9;
}

inline void led_blinken(){				// BUG: Nachdem Benutzung des Drehgebers, ist die Funktion nicht aufgerufen.
	if (1 > led_delay){
     852:	80 91 00 02 	lds	r24, 0x0200	; 0x800200 <__DATA_REGION_ORIGIN__>
     856:	81 11       	cpse	r24, r1
     858:	32 c0       	rjmp	.+100    	; 0x8be <main+0x280>
		if(do_blink){
     85a:	80 91 17 03 	lds	r24, 0x0317	; 0x800317 <do_blink>
     85e:	88 23       	and	r24, r24
     860:	51 f1       	breq	.+84     	; 0x8b6 <main+0x278>
     862:	2f b7       	in	r18, 0x3f	; 63
    return 1;
}

static __inline__ uint8_t __iCliRetVal(void)
{
    cli();
     864:	f8 94       	cli
     866:	81 e0       	ldi	r24, 0x01	; 1
     868:	88 23       	and	r24, r24
     86a:	71 f0       	breq	.+28     	; 0x888 <main+0x24a>
			*(base + OUT_OFFSET) ^= (uint8_t)(OUT_MASK & bits);
     86c:	a4 e5       	ldi	r26, 0x54	; 84
     86e:	b3 e0       	ldi	r27, 0x03	; 3
     870:	12 96       	adiw	r26, 0x02	; 2
     872:	ed 91       	ld	r30, X+
     874:	fc 91       	ld	r31, X
     876:	13 97       	sbiw	r26, 0x03	; 3
     878:	92 81       	ldd	r25, Z+2	; 0x02
     87a:	14 96       	adiw	r26, 0x04	; 4
     87c:	8c 91       	ld	r24, X
     87e:	88 73       	andi	r24, 0x38	; 56
     880:	89 27       	eor	r24, r25
    /*! \brief Invertiere die durch bits spezifizierten Bits des Ports.
		\param [in] bits Bitmuster in active-high Logik. Default 0xFF. Bitpositionen, die
		            beim Port zur Eingabe konfiguriert sind, werden dabei ignoriert.
	*/
	virtual inline void toggle (uint8_t bits=0xFF) {
		CRITICAL_SECTION { 
     882:	82 83       	std	Z+2, r24	; 0x02
     884:	80 e0       	ldi	r24, 0x00	; 0
    (void)__s;
}

static __inline__ void __iRestore(const  uint8_t *__s)
{
    SREG = *__s;
     886:	f0 cf       	rjmp	.-32     	; 0x868 <main+0x22a>
			leds.toggle(0b00111000);
			display.set_pos(3, 0);
     888:	2f bf       	out	0x3f, r18	; 63
     88a:	40 e0       	ldi	r20, 0x00	; 0
     88c:	63 e0       	ldi	r22, 0x03	; 3
     88e:	8c e2       	ldi	r24, 0x2C	; 44
     890:	93 e0       	ldi	r25, 0x03	; 3
			display.write_FLASH_text(text_clear);
     892:	c0 d5       	rcall	.+2944   	; 0x1414 <_ZN3LCD7set_posEhh>
     894:	40 e0       	ldi	r20, 0x00	; 0
     896:	67 e4       	ldi	r22, 0x47	; 71
     898:	71 e0       	ldi	r23, 0x01	; 1
     89a:	8c e2       	ldi	r24, 0x2C	; 44
     89c:	93 e0       	ldi	r25, 0x03	; 3
			display.set_pos(3, 19);
     89e:	24 d7       	rcall	.+3656   	; 0x16e8 <_ZN3LCD16write_FLASH_textEPKch>
     8a0:	43 e1       	ldi	r20, 0x13	; 19
     8a2:	63 e0       	ldi	r22, 0x03	; 3
     8a4:	8c e2       	ldi	r24, 0x2C	; 44
     8a6:	93 e0       	ldi	r25, 0x03	; 3
			display.write_FLASH_text(text_clear);
     8a8:	b5 d5       	rcall	.+2922   	; 0x1414 <_ZN3LCD7set_posEhh>
     8aa:	40 e0       	ldi	r20, 0x00	; 0
     8ac:	67 e4       	ldi	r22, 0x47	; 71
     8ae:	71 e0       	ldi	r23, 0x01	; 1
     8b0:	8c e2       	ldi	r24, 0x2C	; 44
     8b2:	93 e0       	ldi	r25, 0x03	; 3
     8b4:	19 d7       	rcall	.+3634   	; 0x16e8 <_ZN3LCD16write_FLASH_textEPKch>
		}
		led_delay = 2;
     8b6:	82 e0       	ldi	r24, 0x02	; 2
     8b8:	80 93 00 02 	sts	0x0200, r24	; 0x800200 <__DATA_REGION_ORIGIN__>
     8bc:	05 c0       	rjmp	.+10     	; 0x8c8 <main+0x28a>
	}
	else if(led_delay > 2){
     8be:	83 30       	cpi	r24, 0x03	; 3
     8c0:	18 f0       	brcs	.+6      	; 0x8c8 <main+0x28a>
		led_delay = 2;
     8c2:	82 e0       	ldi	r24, 0x02	; 2
     8c4:	80 93 00 02 	sts	0x0200, r24	; 0x800200 <__DATA_REGION_ORIGIN__>
     8c8:	2f b7       	in	r18, 0x3f	; 63
    return 1;
}

static __inline__ uint8_t __iCliRetVal(void)
{
    cli();
     8ca:	f8 94       	cli
     8cc:	81 e0       	ldi	r24, 0x01	; 1
     8ce:	88 23       	and	r24, r24
     8d0:	71 f0       	breq	.+28     	; 0x8ee <main+0x2b0>
			*(base + OUT_OFFSET) ^= (uint8_t)(OUT_MASK & bits);
     8d2:	a4 e5       	ldi	r26, 0x54	; 84
     8d4:	b3 e0       	ldi	r27, 0x03	; 3
     8d6:	12 96       	adiw	r26, 0x02	; 2
     8d8:	ed 91       	ld	r30, X+
     8da:	fc 91       	ld	r31, X
     8dc:	13 97       	sbiw	r26, 0x03	; 3
     8de:	92 81       	ldd	r25, Z+2	; 0x02
     8e0:	14 96       	adiw	r26, 0x04	; 4
     8e2:	8c 91       	ld	r24, X
     8e4:	80 78       	andi	r24, 0x80	; 128
     8e6:	89 27       	eor	r24, r25
     8e8:	82 83       	std	Z+2, r24	; 0x02
    /*! \brief Invertiere die durch bits spezifizierten Bits des Ports.
		\param [in] bits Bitmuster in active-high Logik. Default 0xFF. Bitpositionen, die
		            beim Port zur Eingabe konfiguriert sind, werden dabei ignoriert.
	*/
	virtual inline void toggle (uint8_t bits=0xFF) {
		CRITICAL_SECTION { 
     8ea:	80 e0       	ldi	r24, 0x00	; 0
     8ec:	f0 cf       	rjmp	.-32     	; 0x8ce <main+0x290>
    (void)__s;
}

static __inline__ void __iRestore(const  uint8_t *__s)
{
    SREG = *__s;
     8ee:	2f bf       	out	0x3f, r18	; 63
			}
			theSensors.temp_alarm();
			theSensors.show();
			led_blinken();
			leds.toggle(0b10000000);
			do_update = false;
     8f0:	10 92 16 03 	sts	0x0316, r1	; 0x800316 <do_update>
		//return IN_MASK & mask & ((mode==SET_ACTIVE_HIGH) ? (*(base + IN_OFFSET)) : ~(*(base + IN_OFFSET)));
	//};
	
	virtual inline uint8_t read_raw(uint8_t mask=0xFF) {
		uint8_t ret_val;
		CRITICAL_SECTION {
     8f4:	2f b7       	in	r18, 0x3f	; 63
    return 1;
}

static __inline__ uint8_t __iCliRetVal(void)
{
    cli();
     8f6:	f8 94       	cli
     8f8:	81 e0       	ldi	r24, 0x01	; 1
     8fa:	88 23       	and	r24, r24
     8fc:	b9 f0       	breq	.+46     	; 0x92c <main+0x2ee>
		 ret_val = IN_MASK & mask & ((mode==SET_ACTIVE_HIGH) ? (*(base + IN_OFFSET)) : ~(*(base + IN_OFFSET)));
     8fe:	ee e4       	ldi	r30, 0x4E	; 78
     900:	f3 e0       	ldi	r31, 0x03	; 3
     902:	c4 81       	ldd	r28, Z+4	; 0x04
     904:	9c 2f       	mov	r25, r28
     906:	90 95       	com	r25
     908:	85 81       	ldd	r24, Z+5	; 0x05
     90a:	8f 3f       	cpi	r24, 0xFF	; 255
     90c:	31 f4       	brne	.+12     	; 0x91a <main+0x2dc>
     90e:	e0 91 50 03 	lds	r30, 0x0350	; 0x800350 <_ZL4keys+0x2>
     912:	f0 91 51 03 	lds	r31, 0x0351	; 0x800351 <_ZL4keys+0x3>
     916:	c0 81       	ld	r28, Z
     918:	06 c0       	rjmp	.+12     	; 0x926 <main+0x2e8>
     91a:	e0 91 50 03 	lds	r30, 0x0350	; 0x800350 <_ZL4keys+0x2>
     91e:	f0 91 51 03 	lds	r31, 0x0351	; 0x800351 <_ZL4keys+0x3>
     922:	c0 81       	ld	r28, Z
     924:	c0 95       	com	r28
     926:	c9 23       	and	r28, r25
		//return IN_MASK & mask & ((mode==SET_ACTIVE_HIGH) ? (*(base + IN_OFFSET)) : ~(*(base + IN_OFFSET)));
	//};
	
	virtual inline uint8_t read_raw(uint8_t mask=0xFF) {
		uint8_t ret_val;
		CRITICAL_SECTION {
     928:	80 e0       	ldi	r24, 0x00	; 0
     92a:	e7 cf       	rjmp	.-50     	; 0x8fa <main+0x2bc>
    (void)__s;
}

static __inline__ void __iRestore(const  uint8_t *__s)
{
    SREG = *__s;
     92c:	2f bf       	out	0x3f, r18	; 63
    /*! \brief  Gib data auf den Ausgabepins des Ports aus.
		\param [in] data Auszugebenedes Bitmuster in active-high Logik. Bitpositionen, die
				    beim Port zur Eingabe konfiguriert sind, werden dabei ignoriert.
	*/
    virtual inline void write(uint8_t data) {
		CRITICAL_SECTION { 
     92e:	2f b7       	in	r18, 0x3f	; 63
    return 1;
}

static __inline__ uint8_t __iCliRetVal(void)
{
    cli();
     930:	f8 94       	cli
     932:	81 e0       	ldi	r24, 0x01	; 1
     934:	88 23       	and	r24, r24
     936:	89 f0       	breq	.+34     	; 0x95a <main+0x31c>
			*(base + OUT_OFFSET) = (uint8_t)(OUT_MASK & ((mode==SET_ACTIVE_HIGH) ? data : (uint8_t)(~data)));
     938:	e4 e5       	ldi	r30, 0x54	; 84
     93a:	f3 e0       	ldi	r31, 0x03	; 3
     93c:	a2 81       	ldd	r26, Z+2	; 0x02
     93e:	b3 81       	ldd	r27, Z+3	; 0x03
     940:	84 81       	ldd	r24, Z+4	; 0x04
     942:	95 81       	ldd	r25, Z+5	; 0x05
     944:	9f 3f       	cpi	r25, 0xFF	; 255
     946:	19 f0       	breq	.+6      	; 0x94e <main+0x310>
     948:	9c 2f       	mov	r25, r28
     94a:	90 95       	com	r25
     94c:	01 c0       	rjmp	.+2      	; 0x950 <main+0x312>
     94e:	9c 2f       	mov	r25, r28
     950:	98 23       	and	r25, r24
     952:	12 96       	adiw	r26, 0x02	; 2
     954:	9c 93       	st	X, r25
    /*! \brief  Gib data auf den Ausgabepins des Ports aus.
		\param [in] data Auszugebenedes Bitmuster in active-high Logik. Bitpositionen, die
				    beim Port zur Eingabe konfiguriert sind, werden dabei ignoriert.
	*/
    virtual inline void write(uint8_t data) {
		CRITICAL_SECTION { 
     956:	80 e0       	ldi	r24, 0x00	; 0
     958:	ed cf       	rjmp	.-38     	; 0x934 <main+0x2f6>
    (void)__s;
}

static __inline__ void __iRestore(const  uint8_t *__s)
{
    SREG = *__s;
     95a:	2f bf       	out	0x3f, r18	; 63
		//return IN_MASK & mask & ((mode==SET_ACTIVE_HIGH) ? (*(base + IN_OFFSET)) : ~(*(base + IN_OFFSET)));
	//};
	
	virtual inline uint8_t read_raw(uint8_t mask=0xFF) {
		uint8_t ret_val;
		CRITICAL_SECTION {
     95c:	2f b7       	in	r18, 0x3f	; 63
    return 1;
}

static __inline__ uint8_t __iCliRetVal(void)
{
    cli();
     95e:	f8 94       	cli
     960:	81 e0       	ldi	r24, 0x01	; 1
     962:	88 23       	and	r24, r24
     964:	b9 f0       	breq	.+46     	; 0x994 <main+0x356>
		 ret_val = IN_MASK & mask & ((mode==SET_ACTIVE_HIGH) ? (*(base + IN_OFFSET)) : ~(*(base + IN_OFFSET)));
     966:	ee e4       	ldi	r30, 0x4E	; 78
     968:	f3 e0       	ldi	r31, 0x03	; 3
     96a:	84 81       	ldd	r24, Z+4	; 0x04
     96c:	80 95       	com	r24
     96e:	95 81       	ldd	r25, Z+5	; 0x05
     970:	9f 3f       	cpi	r25, 0xFF	; 255
     972:	31 f4       	brne	.+12     	; 0x980 <main+0x342>
     974:	e0 91 50 03 	lds	r30, 0x0350	; 0x800350 <_ZL4keys+0x2>
     978:	f0 91 51 03 	lds	r31, 0x0351	; 0x800351 <_ZL4keys+0x3>
     97c:	90 81       	ld	r25, Z
     97e:	06 c0       	rjmp	.+12     	; 0x98c <main+0x34e>
     980:	e0 91 50 03 	lds	r30, 0x0350	; 0x800350 <_ZL4keys+0x2>
     984:	f0 91 51 03 	lds	r31, 0x0351	; 0x800351 <_ZL4keys+0x3>
     988:	90 81       	ld	r25, Z
     98a:	90 95       	com	r25
     98c:	d8 2f       	mov	r29, r24
     98e:	d9 23       	and	r29, r25
		//return IN_MASK & mask & ((mode==SET_ACTIVE_HIGH) ? (*(base + IN_OFFSET)) : ~(*(base + IN_OFFSET)));
	//};
	
	virtual inline uint8_t read_raw(uint8_t mask=0xFF) {
		uint8_t ret_val;
		CRITICAL_SECTION {
     990:	80 e0       	ldi	r24, 0x00	; 0
     992:	e7 cf       	rjmp	.-50     	; 0x962 <main+0x324>
    (void)__s;
}

static __inline__ void __iRestore(const  uint8_t *__s)
{
    SREG = *__s;
     994:	2f bf       	out	0x3f, r18	; 63
																00:00:00    00:00    xxx°C (zzz)   xx%
		
																<Weckeralarm>       <Temperaturalaram>
																*/
		leds.write(keys.read_raw());
		switch (keys.read_raw()) {
     996:	d8 30       	cpi	r29, 0x08	; 8
     998:	09 f4       	brne	.+2      	; 0x99c <main+0x35e>
     99a:	5b c0       	rjmp	.+182    	; 0xa52 <main+0x414>
     99c:	48 f4       	brcc	.+18     	; 0x9b0 <main+0x372>
     99e:	d2 30       	cpi	r29, 0x02	; 2
     9a0:	61 f1       	breq	.+88     	; 0x9fa <main+0x3bc>
     9a2:	d4 30       	cpi	r29, 0x04	; 4
     9a4:	09 f4       	brne	.+2      	; 0x9a8 <main+0x36a>
     9a6:	3f c0       	rjmp	.+126    	; 0xa26 <main+0x3e8>
     9a8:	d1 30       	cpi	r29, 0x01	; 1
     9aa:	09 f0       	breq	.+2      	; 0x9ae <main+0x370>
     9ac:	6a ce       	rjmp	.-812    	; 0x682 <main+0x44>
     9ae:	0f c0       	rjmp	.+30     	; 0x9ce <main+0x390>
     9b0:	d0 32       	cpi	r29, 0x20	; 32
     9b2:	09 f4       	brne	.+2      	; 0x9b6 <main+0x378>
     9b4:	88 c0       	rjmp	.+272    	; 0xac6 <main+0x488>
     9b6:	20 f4       	brcc	.+8      	; 0x9c0 <main+0x382>
     9b8:	d0 31       	cpi	r29, 0x10	; 16
     9ba:	09 f4       	brne	.+2      	; 0x9be <main+0x380>
     9bc:	64 c0       	rjmp	.+200    	; 0xa86 <main+0x448>
     9be:	61 ce       	rjmp	.-830    	; 0x682 <main+0x44>
     9c0:	d0 34       	cpi	r29, 0x40	; 64
     9c2:	09 f4       	brne	.+2      	; 0x9c6 <main+0x388>
     9c4:	c0 c0       	rjmp	.+384    	; 0xb46 <main+0x508>
     9c6:	d0 38       	cpi	r29, 0x80	; 128
     9c8:	09 f4       	brne	.+2      	; 0x9cc <main+0x38e>
     9ca:	e4 c0       	rjmp	.+456    	; 0xb94 <main+0x556>
     9cc:	5a ce       	rjmp	.-844    	; 0x682 <main+0x44>
		
		inline void set_update(time_t refresh_time){update = refresh_time;}
		inline void set_h(uint8_t h){hour = h;}
		inline void set_m(uint8_t m){min = m;}
		inline void set_s(uint8_t s){sec = s;}
		uint8_t inline get_h(){return hour;}
     9ce:	0f 2e       	mov	r0, r31
     9d0:	f9 ef       	ldi	r31, 0xF9	; 249
     9d2:	af 2e       	mov	r10, r31
     9d4:	f2 e0       	ldi	r31, 0x02	; 2
     9d6:	bf 2e       	mov	r11, r31
     9d8:	f0 2d       	mov	r31, r0
     9da:	f5 01       	movw	r30, r10
																<Weckeralarm>       <Temperaturalaram>
																*/
		leds.write(keys.read_raw());
		switch (keys.read_raw()) {
			//										(text, vertical, horizontal, maxlen,  min, max, start)
			case SET_H:		theClock.set_h(read_quenc(sethours, 1, 0, 2, 0, MAX_H, theClock.get_h())); //0
     9dc:	c0 80       	ld	r12, Z
     9de:	0f 2e       	mov	r0, r31
     9e0:	f7 e1       	ldi	r31, 0x17	; 23
     9e2:	ef 2e       	mov	r14, r31
     9e4:	f0 2d       	mov	r31, r0
     9e6:	00 e0       	ldi	r16, 0x00	; 0
     9e8:	22 e0       	ldi	r18, 0x02	; 2
     9ea:	40 e0       	ldi	r20, 0x00	; 0
     9ec:	61 e0       	ldi	r22, 0x01	; 1
     9ee:	86 e3       	ldi	r24, 0x36	; 54
     9f0:	91 e0       	ldi	r25, 0x01	; 1
     9f2:	93 dc       	rcall	.-1754   	; 0x31a <_ZL10read_quencPKchhhhha>
		inline void tick();
		inline void wecker();
		inline void clear_alarm();
		
		inline void set_update(time_t refresh_time){update = refresh_time;}
		inline void set_h(uint8_t h){hour = h;}
     9f4:	f5 01       	movw	r30, r10
     9f6:	80 83       	st	Z, r24
     9f8:	44 ce       	rjmp	.-888    	; 0x682 <main+0x44>
		inline void set_m(uint8_t m){min = m;}
		inline void set_s(uint8_t s){sec = s;}
		uint8_t inline get_h(){return hour;}
		uint8_t inline get_m(){return min;}
     9fa:	0f 2e       	mov	r0, r31
     9fc:	f9 ef       	ldi	r31, 0xF9	; 249
     9fe:	af 2e       	mov	r10, r31
     a00:	f2 e0       	ldi	r31, 0x02	; 2
     a02:	bf 2e       	mov	r11, r31
     a04:	f0 2d       	mov	r31, r0
     a06:	f5 01       	movw	r30, r10
		leds.write(keys.read_raw());
		switch (keys.read_raw()) {
			//										(text, vertical, horizontal, maxlen,  min, max, start)
			case SET_H:		theClock.set_h(read_quenc(sethours, 1, 0, 2, 0, MAX_H, theClock.get_h())); //0
							break;
			case SET_M:		theClock.set_m(read_quenc(setminutes, 1, 3, 2, 0, MAX_MIN, theClock.get_m()));  //1
     a08:	c1 80       	ldd	r12, Z+1	; 0x01
     a0a:	0f 2e       	mov	r0, r31
     a0c:	fb e3       	ldi	r31, 0x3B	; 59
     a0e:	ef 2e       	mov	r14, r31
     a10:	f0 2d       	mov	r31, r0
     a12:	00 e0       	ldi	r16, 0x00	; 0
     a14:	22 e0       	ldi	r18, 0x02	; 2
     a16:	43 e0       	ldi	r20, 0x03	; 3
     a18:	61 e0       	ldi	r22, 0x01	; 1
     a1a:	83 e2       	ldi	r24, 0x23	; 35
     a1c:	91 e0       	ldi	r25, 0x01	; 1
     a1e:	7d dc       	rcall	.-1798   	; 0x31a <_ZL10read_quencPKchhhhha>
		inline void wecker();
		inline void clear_alarm();
		
		inline void set_update(time_t refresh_time){update = refresh_time;}
		inline void set_h(uint8_t h){hour = h;}
		inline void set_m(uint8_t m){min = m;}
     a20:	f5 01       	movw	r30, r10
     a22:	81 83       	std	Z+1, r24	; 0x01
     a24:	2e ce       	rjmp	.-932    	; 0x682 <main+0x44>
		inline void set_s(uint8_t s){sec = s;}
		uint8_t inline get_h(){return hour;}
		uint8_t inline get_m(){return min;}
		uint8_t inline get_s(){return sec;}
     a26:	0f 2e       	mov	r0, r31
     a28:	f9 ef       	ldi	r31, 0xF9	; 249
     a2a:	af 2e       	mov	r10, r31
     a2c:	f2 e0       	ldi	r31, 0x02	; 2
     a2e:	bf 2e       	mov	r11, r31
     a30:	f0 2d       	mov	r31, r0
     a32:	f5 01       	movw	r30, r10
			//										(text, vertical, horizontal, maxlen,  min, max, start)
			case SET_H:		theClock.set_h(read_quenc(sethours, 1, 0, 2, 0, MAX_H, theClock.get_h())); //0
							break;
			case SET_M:		theClock.set_m(read_quenc(setminutes, 1, 3, 2, 0, MAX_MIN, theClock.get_m()));  //1
							break;
			case SET_S:		theClock.set_s(read_quenc(setseconds, 1, 6, 2, 0, MAX_SEC, theClock.get_s()));  //2
     a34:	c2 80       	ldd	r12, Z+2	; 0x02
     a36:	0f 2e       	mov	r0, r31
     a38:	fb e3       	ldi	r31, 0x3B	; 59
     a3a:	ef 2e       	mov	r14, r31
     a3c:	f0 2d       	mov	r31, r0
     a3e:	00 e0       	ldi	r16, 0x00	; 0
     a40:	22 e0       	ldi	r18, 0x02	; 2
     a42:	46 e0       	ldi	r20, 0x06	; 6
     a44:	61 e0       	ldi	r22, 0x01	; 1
     a46:	80 e1       	ldi	r24, 0x10	; 16
     a48:	91 e0       	ldi	r25, 0x01	; 1
     a4a:	67 dc       	rcall	.-1842   	; 0x31a <_ZL10read_quencPKchhhhha>
		inline void clear_alarm();
		
		inline void set_update(time_t refresh_time){update = refresh_time;}
		inline void set_h(uint8_t h){hour = h;}
		inline void set_m(uint8_t m){min = m;}
		inline void set_s(uint8_t s){sec = s;}
     a4c:	f5 01       	movw	r30, r10
     a4e:	82 83       	std	Z+2, r24	; 0x02
     a50:	18 ce       	rjmp	.-976    	; 0x682 <main+0x44>
		inline void set_as(uint8_t as){
			alarm_sec = as; 
			alarm_on();
			eeprom_write(alarm_sec, 2);
		}
		uint8_t inline get_ah(){return alarm_hour;}
     a52:	0f 2e       	mov	r0, r31
     a54:	f9 ef       	ldi	r31, 0xF9	; 249
     a56:	af 2e       	mov	r10, r31
     a58:	f2 e0       	ldi	r31, 0x02	; 2
     a5a:	bf 2e       	mov	r11, r31
     a5c:	f0 2d       	mov	r31, r0
     a5e:	f5 01       	movw	r30, r10
							break;
			case SET_M:		theClock.set_m(read_quenc(setminutes, 1, 3, 2, 0, MAX_MIN, theClock.get_m()));  //1
							break;
			case SET_S:		theClock.set_s(read_quenc(setseconds, 1, 6, 2, 0, MAX_SEC, theClock.get_s()));  //2
							break; 
			case SET_AH:	theClock.set_ah(read_quenc(sethours, 1, 12, 2, 0, MAX_H, theClock.get_ah()));  //3
     a60:	c3 80       	ldd	r12, Z+3	; 0x03
     a62:	0f 2e       	mov	r0, r31
     a64:	f7 e1       	ldi	r31, 0x17	; 23
     a66:	ef 2e       	mov	r14, r31
     a68:	f0 2d       	mov	r31, r0
     a6a:	00 e0       	ldi	r16, 0x00	; 0
     a6c:	22 e0       	ldi	r18, 0x02	; 2
     a6e:	4c e0       	ldi	r20, 0x0C	; 12
     a70:	61 e0       	ldi	r22, 0x01	; 1
     a72:	86 e3       	ldi	r24, 0x36	; 54
     a74:	91 e0       	ldi	r25, 0x01	; 1
		uint8_t inline get_h(){return hour;}
		uint8_t inline get_m(){return min;}
		uint8_t inline get_s(){return sec;}
			
		inline void set_ah(uint8_t ah){
			alarm_hour = ah; 
     a76:	51 dc       	rcall	.-1886   	; 0x31a <_ZL10read_quencPKchhhhha>
     a78:	f5 01       	movw	r30, r10
		bool alarm_text_status;
		
		time_t update;
		LCD* display_handle;
		
		inline void alarm_on(){alarm_status = true;}
     a7a:	83 83       	std	Z+3, r24	; 0x03
     a7c:	91 e0       	ldi	r25, 0x01	; 1
		uint8_t inline get_s(){return sec;}
			
		inline void set_ah(uint8_t ah){
			alarm_hour = ah; 
			alarm_on();
			eeprom_write(alarm_hour, 0);
     a7e:	96 83       	std	Z+6, r25	; 0x06
     a80:	60 e0       	ldi	r22, 0x00	; 0
     a82:	33 dd       	rcall	.-1434   	; 0x4ea <_Z12eeprom_writehh>
     a84:	fe cd       	rjmp	.-1028   	; 0x682 <main+0x44>
			alarm_sec = as; 
			alarm_on();
			eeprom_write(alarm_sec, 2);
		}
		uint8_t inline get_ah(){return alarm_hour;}
		uint8_t inline get_am(){return alarm_min;}
     a86:	0f 2e       	mov	r0, r31
     a88:	f9 ef       	ldi	r31, 0xF9	; 249
     a8a:	af 2e       	mov	r10, r31
     a8c:	f2 e0       	ldi	r31, 0x02	; 2
     a8e:	bf 2e       	mov	r11, r31
     a90:	f0 2d       	mov	r31, r0
     a92:	f5 01       	movw	r30, r10
							break;
			case SET_S:		theClock.set_s(read_quenc(setseconds, 1, 6, 2, 0, MAX_SEC, theClock.get_s()));  //2
							break; 
			case SET_AH:	theClock.set_ah(read_quenc(sethours, 1, 12, 2, 0, MAX_H, theClock.get_ah()));  //3
							break;
			case SET_AM:	theClock.set_am(read_quenc(setminutes, 1, 15, 2, 0, MAX_MIN, theClock.get_am()));  //4
     a94:	c4 80       	ldd	r12, Z+4	; 0x04
     a96:	0f 2e       	mov	r0, r31
     a98:	fb e3       	ldi	r31, 0x3B	; 59
     a9a:	ef 2e       	mov	r14, r31
     a9c:	f0 2d       	mov	r31, r0
     a9e:	00 e0       	ldi	r16, 0x00	; 0
     aa0:	22 e0       	ldi	r18, 0x02	; 2
     aa2:	4f e0       	ldi	r20, 0x0F	; 15
     aa4:	61 e0       	ldi	r22, 0x01	; 1
     aa6:	83 e2       	ldi	r24, 0x23	; 35
     aa8:	91 e0       	ldi	r25, 0x01	; 1
			alarm_hour = ah; 
			alarm_on();
			eeprom_write(alarm_hour, 0);
		}
		inline void set_am(uint8_t am){
			alarm_min = am; 
     aaa:	37 dc       	rcall	.-1938   	; 0x31a <_ZL10read_quencPKchhhhha>
     aac:	f5 01       	movw	r30, r10
		bool alarm_text_status;
		
		time_t update;
		LCD* display_handle;
		
		inline void alarm_on(){alarm_status = true;}
     aae:	84 83       	std	Z+4, r24	; 0x04
     ab0:	11 e0       	ldi	r17, 0x01	; 1
			eeprom_write(alarm_hour, 0);
		}
		inline void set_am(uint8_t am){
			alarm_min = am; 
			alarm_on();
			eeprom_write(alarm_min, 1);
     ab2:	16 83       	std	Z+6, r17	; 0x06
     ab4:	61 e0       	ldi	r22, 0x01	; 1
     ab6:	19 dd       	rcall	.-1486   	; 0x4ea <_Z12eeprom_writehh>
		}
		inline void set_as(uint8_t as){
			alarm_sec = as; 
     ab8:	f5 01       	movw	r30, r10
     aba:	15 82       	std	Z+5, r1	; 0x05
		bool alarm_text_status;
		
		time_t update;
		LCD* display_handle;
		
		inline void alarm_on(){alarm_status = true;}
     abc:	16 83       	std	Z+6, r17	; 0x06
			eeprom_write(alarm_min, 1);
		}
		inline void set_as(uint8_t as){
			alarm_sec = as; 
			alarm_on();
			eeprom_write(alarm_sec, 2);
     abe:	62 e0       	ldi	r22, 0x02	; 2
     ac0:	80 e0       	ldi	r24, 0x00	; 0
     ac2:	13 dd       	rcall	.-1498   	; 0x4ea <_Z12eeprom_writehh>
     ac4:	de cd       	rjmp	.-1092   	; 0x682 <main+0x44>
		
		uint8_t inline get_temp_inC(){return temp_inC;}
		uint8_t inline get_temp_inF(){return temp_inF;}
		// result = condition ? value1 (if yes) : value2 (else);
		uint8_t inline get_alarm_value(){
			return (celcius == temp_type) ? alarm_value_inC : alarm_value_inF;
     ac6:	80 91 f2 02 	lds	r24, 0x02F2	; 0x8002f2 <__data_end+0xc>
     aca:	81 11       	cpse	r24, r1
     acc:	03 c0       	rjmp	.+6      	; 0xad4 <main+0x496>
     ace:	c0 90 ee 02 	lds	r12, 0x02EE	; 0x8002ee <__data_end+0x8>
     ad2:	02 c0       	rjmp	.+4      	; 0xad8 <main+0x49a>
     ad4:	c0 90 f0 02 	lds	r12, 0x02F0	; 0x8002f0 <__data_end+0xa>
			case SET_AH:	theClock.set_ah(read_quenc(sethours, 1, 12, 2, 0, MAX_H, theClock.get_ah()));  //3
							break;
			case SET_AM:	theClock.set_am(read_quenc(setminutes, 1, 15, 2, 0, MAX_MIN, theClock.get_am()));  //4
							theClock.set_as(0);
							break;
			case SET_TEMP:	theSensors.set_alarm_value(read_quenc(settempalarm, 1, 28, 3, 0, 122, theSensors.get_alarm_value()));  //5
     ad8:	0f 2e       	mov	r0, r31
     ada:	fa e7       	ldi	r31, 0x7A	; 122
     adc:	ef 2e       	mov	r14, r31
     ade:	f0 2d       	mov	r31, r0
     ae0:	00 e0       	ldi	r16, 0x00	; 0
     ae2:	23 e0       	ldi	r18, 0x03	; 3
     ae4:	4c e1       	ldi	r20, 0x1C	; 28
     ae6:	61 e0       	ldi	r22, 0x01	; 1
     ae8:	8a ef       	ldi	r24, 0xFA	; 250
     aea:	90 e0       	ldi	r25, 0x00	; 0
     aec:	16 dc       	rcall	.-2004   	; 0x31a <_ZL10read_quencPKchhhhha>
     aee:	90 e0       	ldi	r25, 0x00	; 0
     af0:	20 91 f2 02 	lds	r18, 0x02F2	; 0x8002f2 <__data_end+0xc>
			}
		}
};

inline void mySensor::set_alarm_value(uint16_t value){
	if(celcius == temp_type){
     af4:	21 11       	cpse	r18, r1
     af6:	05 c0       	rjmp	.+10     	; 0xb02 <main+0x4c4>
     af8:	90 93 ef 02 	sts	0x02EF, r25	; 0x8002ef <__data_end+0x9>
		alarm_value_inC = value;
     afc:	80 93 ee 02 	sts	0x02EE, r24	; 0x8002ee <__data_end+0x8>
     b00:	1a c0       	rjmp	.+52     	; 0xb36 <main+0x4f8>
     b02:	e6 ee       	ldi	r30, 0xE6	; 230
	}
	else{
		alarm_value_inF = value;
     b04:	f2 e0       	ldi	r31, 0x02	; 2
     b06:	93 87       	std	Z+11, r25	; 0x0b
     b08:	82 87       	std	Z+10, r24	; 0x0a
     b0a:	9c 01       	movw	r18, r24
inline uint16_t C_to_F(uint16_t val){
	return (val * 9/5) + 32;
}

inline uint16_t F_to_C(uint16_t val){
	return (val - 32) * 5/9;
     b0c:	22 0f       	add	r18, r18
     b0e:	33 1f       	adc	r19, r19
     b10:	22 0f       	add	r18, r18
     b12:	33 1f       	adc	r19, r19
     b14:	82 0f       	add	r24, r18
     b16:	93 1f       	adc	r25, r19
     b18:	9c 01       	movw	r18, r24
     b1a:	20 5a       	subi	r18, 0xA0	; 160
     b1c:	31 09       	sbc	r19, r1
     b1e:	af e8       	ldi	r26, 0x8F	; 143
     b20:	b3 ee       	ldi	r27, 0xE3	; 227
     b22:	0e 94 63 16 	call	0x2cc6	; 0x2cc6 <__umulhisi3>
     b26:	96 95       	lsr	r25
     b28:	87 95       	ror	r24
     b2a:	96 95       	lsr	r25
     b2c:	87 95       	ror	r24
     b2e:	96 95       	lsr	r25
     b30:	87 95       	ror	r24
	if(celcius == temp_type){
		alarm_value_inC = value;
	}
	else{
		alarm_value_inF = value;
		alarm_value_inC = F_to_C(value);
     b32:	91 87       	std	Z+9, r25	; 0x09
	}
	alarm_status = true;
     b34:	80 87       	std	Z+8, r24	; 0x08
     b36:	e6 ee       	ldi	r30, 0xE6	; 230
     b38:	f2 e0       	ldi	r31, 0x02	; 2
	eeprom_write(alarm_value_inC, 3);
     b3a:	81 e0       	ldi	r24, 0x01	; 1
     b3c:	82 8b       	std	Z+18, r24	; 0x12
     b3e:	63 e0       	ldi	r22, 0x03	; 3
     b40:	80 85       	ldd	r24, Z+8	; 0x08
     b42:	d3 dc       	rcall	.-1626   	; 0x4ea <_Z12eeprom_writehh>
	}
	update = nothing;
}

inline void mySensor::toggle_unit(){
	if (celcius == temp_type){
     b44:	9e cd       	rjmp	.-1220   	; 0x682 <main+0x44>
     b46:	80 91 f2 02 	lds	r24, 0x02F2	; 0x8002f2 <__data_end+0xc>
     b4a:	81 11       	cpse	r24, r1

		display_handle->set_pos(1, 25);
     b4c:	11 c0       	rjmp	.+34     	; 0xb70 <main+0x532>
     b4e:	06 ee       	ldi	r16, 0xE6	; 230
     b50:	12 e0       	ldi	r17, 0x02	; 2
     b52:	49 e1       	ldi	r20, 0x19	; 25
     b54:	61 e0       	ldi	r22, 0x01	; 1
     b56:	f8 01       	movw	r30, r16
     b58:	80 81       	ld	r24, Z
		display_handle->write_char('F');
     b5a:	91 81       	ldd	r25, Z+1	; 0x01
     b5c:	5b d4       	rcall	.+2230   	; 0x1414 <_ZN3LCD7set_posEhh>
     b5e:	66 e4       	ldi	r22, 0x46	; 70
     b60:	f8 01       	movw	r30, r16
     b62:	80 81       	ld	r24, Z
     b64:	91 81       	ldd	r25, Z+1	; 0x01
		temp_type = fahrenheit;
     b66:	6d d5       	rcall	.+2778   	; 0x1642 <_ZN3LCD10write_charEc>
     b68:	81 e0       	ldi	r24, 0x01	; 1
     b6a:	f8 01       	movw	r30, r16
     b6c:	84 87       	std	Z+12, r24	; 0x0c
	}else{
		
		display_handle->set_pos(1, 25);
     b6e:	0f c0       	rjmp	.+30     	; 0xb8e <main+0x550>
     b70:	06 ee       	ldi	r16, 0xE6	; 230
     b72:	12 e0       	ldi	r17, 0x02	; 2
     b74:	49 e1       	ldi	r20, 0x19	; 25
     b76:	61 e0       	ldi	r22, 0x01	; 1
     b78:	f8 01       	movw	r30, r16
     b7a:	80 81       	ld	r24, Z
     b7c:	91 81       	ldd	r25, Z+1	; 0x01
     b7e:	4a d4       	rcall	.+2196   	; 0x1414 <_ZN3LCD7set_posEhh>
		display_handle->write_char('C');
     b80:	63 e4       	ldi	r22, 0x43	; 67
     b82:	f8 01       	movw	r30, r16
     b84:	80 81       	ld	r24, Z
     b86:	91 81       	ldd	r25, Z+1	; 0x01
     b88:	5c d5       	rcall	.+2744   	; 0x1642 <_ZN3LCD10write_charEc>
		temp_type = celcius;
     b8a:	f8 01       	movw	r30, r16
     b8c:	14 86       	std	Z+12, r1	; 0x0c
	}
	update = utemp;
     b8e:	10 92 f3 02 	sts	0x02F3, r1	; 0x8002f3 <__data_end+0xd>
		uint8_t inline get_am(){return alarm_min;}
		uint8_t inline get_as(){return alarm_sec;}
};

inline void myClock::clear_alarm(){
	if(alarm_status){
     b92:	77 cd       	rjmp	.-1298   	; 0x682 <main+0x44>
     b94:	80 91 ff 02 	lds	r24, 0x02FF	; 0x8002ff <_ZL8theClock+0x6>
     b98:	88 23       	and	r24, r24
		alarm_status = false;
     b9a:	a9 f0       	breq	.+42     	; 0xbc6 <main+0x588>
     b9c:	09 ef       	ldi	r16, 0xF9	; 249
     b9e:	12 e0       	ldi	r17, 0x02	; 2
     ba0:	f8 01       	movw	r30, r16
		//alarm_hour = 0; //alarm_min = 0; //alarm_sec = 0;
		update = ualarm;
     ba2:	16 82       	std	Z+6, r1	; 0x06
     ba4:	83 e0       	ldi	r24, 0x03	; 3
		do_blink = false;
     ba6:	80 87       	std	Z+8, r24	; 0x08
     ba8:	10 92 17 03 	sts	0x0317, r1	; 0x800317 <do_blink>
		alarm_text_status = false;
		display_handle->set_pos(3, 0);
     bac:	17 82       	std	Z+7, r1	; 0x07
     bae:	40 e0       	ldi	r20, 0x00	; 0
     bb0:	63 e0       	ldi	r22, 0x03	; 3
     bb2:	81 85       	ldd	r24, Z+9	; 0x09
     bb4:	92 85       	ldd	r25, Z+10	; 0x0a
		display_handle->write_FLASH_text(text_clear);
     bb6:	2e d4       	rcall	.+2140   	; 0x1414 <_ZN3LCD7set_posEhh>
     bb8:	40 e0       	ldi	r20, 0x00	; 0
     bba:	67 e4       	ldi	r22, 0x47	; 71
     bbc:	71 e0       	ldi	r23, 0x01	; 1
     bbe:	f8 01       	movw	r30, r16
     bc0:	81 85       	ldd	r24, Z+9	; 0x09
     bc2:	92 85       	ldd	r25, Z+10	; 0x0a
	}
	update = utemp;
}

inline void mySensor::clear_alarm(){
	if(alarm_status){
     bc4:	91 d5       	rcall	.+2850   	; 0x16e8 <_ZN3LCD16write_FLASH_textEPKch>
     bc6:	80 91 f8 02 	lds	r24, 0x02F8	; 0x8002f8 <__data_end+0x12>
     bca:	88 23       	and	r24, r24
     bcc:	09 f4       	brne	.+2      	; 0xbd0 <main+0x592>
		alarm_status = false;
     bce:	59 cd       	rjmp	.-1358   	; 0x682 <main+0x44>
     bd0:	06 ee       	ldi	r16, 0xE6	; 230
     bd2:	12 e0       	ldi	r17, 0x02	; 2
     bd4:	f8 01       	movw	r30, r16
		do_blink = false;
     bd6:	12 8a       	std	Z+18, r1	; 0x12
     bd8:	10 92 17 03 	sts	0x0317, r1	; 0x800317 <do_blink>
		display_handle->set_pos(3, 19);
     bdc:	43 e1       	ldi	r20, 0x13	; 19
     bde:	63 e0       	ldi	r22, 0x03	; 3
     be0:	80 81       	ld	r24, Z
     be2:	91 81       	ldd	r25, Z+1	; 0x01
     be4:	17 d4       	rcall	.+2094   	; 0x1414 <_ZN3LCD7set_posEhh>
		display_handle->write_FLASH_text(text_clear);
     be6:	40 e0       	ldi	r20, 0x00	; 0
     be8:	67 e4       	ldi	r22, 0x47	; 71
     bea:	71 e0       	ldi	r23, 0x01	; 1
     bec:	f8 01       	movw	r30, r16
     bee:	80 81       	ld	r24, Z
     bf0:	91 81       	ldd	r25, Z+1	; 0x01
     bf2:	7a d5       	rcall	.+2804   	; 0x16e8 <_ZN3LCD16write_FLASH_textEPKch>
     bf4:	46 cd       	rjmp	.-1396   	; 0x682 <main+0x44>

00000bf6 <_GLOBAL__sub_I_do_blink>:
     bf6:	6f ef       	ldi	r22, 0xFF	; 255
	// when done, clear prompt and return value upon key press
	display.set_pos(2, 0);
	display.write_FLASH_text(setclear);
	return val;
	
}
     bf8:	7f ef       	ldi	r23, 0xFF	; 255
     bfa:	81 e0       	ldi	r24, 0x01	; 1
     bfc:	90 e0       	ldi	r25, 0x00	; 0
     bfe:	f8 cb       	rjmp	.-2064   	; 0x3f0 <_Z41__static_initialization_and_destruction_0ii>
     c00:	08 95       	ret

00000c02 <__vector_29>:
     c02:	1f 92       	push	r1
     c04:	0f 92       	push	r0
     c06:	0f b6       	in	r0, 0x3f	; 63
     c08:	0f 92       	push	r0
     c0a:	11 24       	eor	r1, r1
     c0c:	0b b6       	in	r0, 0x3b	; 59
     c0e:	0f 92       	push	r0
     c10:	2f 93       	push	r18
     c12:	3f 93       	push	r19
     c14:	4f 93       	push	r20
     c16:	5f 93       	push	r21
     c18:	6f 93       	push	r22
     c1a:	7f 93       	push	r23
     c1c:	8f 93       	push	r24
     c1e:	9f 93       	push	r25
     c20:	af 93       	push	r26
     c22:	bf 93       	push	r27
     c24:	ef 93       	push	r30
     c26:	ff 93       	push	r31
     c28:	80 91 7b 03 	lds	r24, 0x037B	; 0x80037b <_ZN11ADConverter8inst_cntE>
     c2c:	88 23       	and	r24, r24
     c2e:	09 f4       	brne	.+2      	; 0xc32 <__vector_29+0x30>
     c30:	88 c0       	rjmp	.+272    	; 0xd42 <__vector_29+0x140>
     c32:	ea e7       	ldi	r30, 0x7A	; 122
     c34:	f0 e0       	ldi	r31, 0x00	; 0
     c36:	80 81       	ld	r24, Z
     c38:	8f 77       	andi	r24, 0x7F	; 127
     c3a:	80 83       	st	Z, r24
     c3c:	60 91 78 00 	lds	r22, 0x0078	; 0x800078 <__TEXT_REGION_LENGTH__+0x7c0078>
     c40:	70 91 79 00 	lds	r23, 0x0079	; 0x800079 <__TEXT_REGION_LENGTH__+0x7c0079>
     c44:	40 91 5a 03 	lds	r20, 0x035A	; 0x80035a <_ZZN11ADConverter7adc_isrEvE4next>
     c48:	24 2f       	mov	r18, r20
     c4a:	30 e0       	ldi	r19, 0x00	; 0
     c4c:	f9 01       	movw	r30, r18
     c4e:	ee 0f       	add	r30, r30
     c50:	ff 1f       	adc	r31, r31
     c52:	e5 5a       	subi	r30, 0xA5	; 165
     c54:	fc 4f       	sbci	r31, 0xFC	; 252
     c56:	a0 81       	ld	r26, Z
     c58:	b1 81       	ldd	r27, Z+1	; 0x01
     c5a:	13 96       	adiw	r26, 0x03	; 3
     c5c:	8d 91       	ld	r24, X+
     c5e:	9c 91       	ld	r25, X
     c60:	14 97       	sbiw	r26, 0x04	; 4
     c62:	86 0f       	add	r24, r22
     c64:	97 1f       	adc	r25, r23
     c66:	14 96       	adiw	r26, 0x04	; 4
     c68:	9c 93       	st	X, r25
     c6a:	8e 93       	st	-X, r24
     c6c:	13 97       	sbiw	r26, 0x03	; 3
     c6e:	a0 81       	ld	r26, Z
     c70:	b1 81       	ldd	r27, Z+1	; 0x01
     c72:	17 96       	adiw	r26, 0x07	; 7
     c74:	8c 91       	ld	r24, X
     c76:	17 97       	sbiw	r26, 0x07	; 7
     c78:	81 50       	subi	r24, 0x01	; 1
     c7a:	17 96       	adiw	r26, 0x07	; 7
     c7c:	8c 93       	st	X, r24
     c7e:	01 90       	ld	r0, Z+
     c80:	f0 81       	ld	r31, Z
     c82:	e0 2d       	mov	r30, r0
     c84:	87 81       	ldd	r24, Z+7	; 0x07
     c86:	81 11       	cpse	r24, r1
     c88:	54 c0       	rjmp	.+168    	; 0xd32 <__vector_29+0x130>
     c8a:	83 81       	ldd	r24, Z+3	; 0x03
     c8c:	94 81       	ldd	r25, Z+4	; 0x04
     c8e:	66 81       	ldd	r22, Z+6	; 0x06
     c90:	70 e0       	ldi	r23, 0x00	; 0
     c92:	0e 94 3c 16 	call	0x2c78	; 0x2c78 <__udivmodhi4>
     c96:	72 83       	std	Z+2, r23	; 0x02
     c98:	61 83       	std	Z+1, r22	; 0x01
     c9a:	22 0f       	add	r18, r18
     c9c:	33 1f       	adc	r19, r19
     c9e:	f9 01       	movw	r30, r18
     ca0:	e5 5a       	subi	r30, 0xA5	; 165
     ca2:	fc 4f       	sbci	r31, 0xFC	; 252
     ca4:	a0 81       	ld	r26, Z
     ca6:	b1 81       	ldd	r27, Z+1	; 0x01
     ca8:	14 96       	adiw	r26, 0x04	; 4
     caa:	1c 92       	st	X, r1
     cac:	1e 92       	st	-X, r1
     cae:	13 97       	sbiw	r26, 0x03	; 3
     cb0:	a0 81       	ld	r26, Z
     cb2:	b1 81       	ldd	r27, Z+1	; 0x01
     cb4:	16 96       	adiw	r26, 0x06	; 6
     cb6:	8c 91       	ld	r24, X
     cb8:	16 97       	sbiw	r26, 0x06	; 6
     cba:	17 96       	adiw	r26, 0x07	; 7
     cbc:	8c 93       	st	X, r24
     cbe:	01 90       	ld	r0, Z+
     cc0:	f0 81       	ld	r31, Z
     cc2:	e0 2d       	mov	r30, r0
     cc4:	81 e0       	ldi	r24, 0x01	; 1
     cc6:	85 83       	std	Z+5, r24	; 0x05
     cc8:	4f 5f       	subi	r20, 0xFF	; 255
     cca:	40 93 5a 03 	sts	0x035A, r20	; 0x80035a <_ZZN11ADConverter7adc_isrEvE4next>
     cce:	80 91 7b 03 	lds	r24, 0x037B	; 0x80037b <_ZN11ADConverter8inst_cntE>
     cd2:	48 17       	cp	r20, r24
     cd4:	10 f0       	brcs	.+4      	; 0xcda <__vector_29+0xd8>
     cd6:	10 92 5a 03 	sts	0x035A, r1	; 0x80035a <_ZZN11ADConverter7adc_isrEvE4next>
     cda:	ac e7       	ldi	r26, 0x7C	; 124
     cdc:	b0 e0       	ldi	r27, 0x00	; 0
     cde:	8c 91       	ld	r24, X
     ce0:	88 7f       	andi	r24, 0xF8	; 248
     ce2:	8c 93       	st	X, r24
     ce4:	9c 91       	ld	r25, X
     ce6:	e0 91 5a 03 	lds	r30, 0x035A	; 0x80035a <_ZZN11ADConverter7adc_isrEvE4next>
     cea:	f0 e0       	ldi	r31, 0x00	; 0
     cec:	ee 0f       	add	r30, r30
     cee:	ff 1f       	adc	r31, r31
     cf0:	e5 5a       	subi	r30, 0xA5	; 165
     cf2:	fc 4f       	sbci	r31, 0xFC	; 252
     cf4:	01 90       	ld	r0, Z+
     cf6:	f0 81       	ld	r31, Z
     cf8:	e0 2d       	mov	r30, r0
     cfa:	80 81       	ld	r24, Z
     cfc:	87 70       	andi	r24, 0x07	; 7
     cfe:	89 2b       	or	r24, r25
     d00:	8c 93       	st	X, r24
     d02:	e0 91 5a 03 	lds	r30, 0x035A	; 0x80035a <_ZZN11ADConverter7adc_isrEvE4next>
     d06:	f0 e0       	ldi	r31, 0x00	; 0
     d08:	ee 0f       	add	r30, r30
     d0a:	ff 1f       	adc	r31, r31
     d0c:	e5 5a       	subi	r30, 0xA5	; 165
     d0e:	fc 4f       	sbci	r31, 0xFC	; 252
     d10:	01 90       	ld	r0, Z+
     d12:	f0 81       	ld	r31, Z
     d14:	e0 2d       	mov	r30, r0
     d16:	80 81       	ld	r24, Z
     d18:	88 30       	cpi	r24, 0x08	; 8
     d1a:	30 f0       	brcs	.+12     	; 0xd28 <__vector_29+0x126>
     d1c:	eb e7       	ldi	r30, 0x7B	; 123
     d1e:	f0 e0       	ldi	r31, 0x00	; 0
     d20:	80 81       	ld	r24, Z
     d22:	88 60       	ori	r24, 0x08	; 8
     d24:	80 83       	st	Z, r24
     d26:	05 c0       	rjmp	.+10     	; 0xd32 <__vector_29+0x130>
     d28:	eb e7       	ldi	r30, 0x7B	; 123
     d2a:	f0 e0       	ldi	r31, 0x00	; 0
     d2c:	80 81       	ld	r24, Z
     d2e:	87 7f       	andi	r24, 0xF7	; 247
     d30:	80 83       	st	Z, r24
     d32:	ea e7       	ldi	r30, 0x7A	; 122
     d34:	f0 e0       	ldi	r31, 0x00	; 0
     d36:	80 81       	ld	r24, Z
     d38:	80 68       	ori	r24, 0x80	; 128
     d3a:	80 83       	st	Z, r24
     d3c:	80 81       	ld	r24, Z
     d3e:	80 64       	ori	r24, 0x40	; 64
     d40:	80 83       	st	Z, r24
     d42:	ff 91       	pop	r31
     d44:	ef 91       	pop	r30
     d46:	bf 91       	pop	r27
     d48:	af 91       	pop	r26
     d4a:	9f 91       	pop	r25
     d4c:	8f 91       	pop	r24
     d4e:	7f 91       	pop	r23
     d50:	6f 91       	pop	r22
     d52:	5f 91       	pop	r21
     d54:	4f 91       	pop	r20
     d56:	3f 91       	pop	r19
     d58:	2f 91       	pop	r18
     d5a:	0f 90       	pop	r0
     d5c:	0b be       	out	0x3b, r0	; 59
     d5e:	0f 90       	pop	r0
     d60:	0f be       	out	0x3f, r0	; 63
     d62:	0f 90       	pop	r0
     d64:	1f 90       	pop	r1
     d66:	18 95       	reti

00000d68 <_ZN11ADConverterC1EhhPFijE>:
     d68:	fc 01       	movw	r30, r24
     d6a:	40 34       	cpi	r20, 0x40	; 64
     d6c:	08 f0       	brcs	.+2      	; 0xd70 <_ZN11ADConverterC1EhhPFijE+0x8>
     d6e:	4f e3       	ldi	r20, 0x3F	; 63
     d70:	46 83       	std	Z+6, r20	; 0x06
     d72:	31 87       	std	Z+9, r19	; 0x09
     d74:	20 87       	std	Z+8, r18	; 0x08
     d76:	80 91 7b 03 	lds	r24, 0x037B	; 0x80037b <_ZN11ADConverter8inst_cntE>
     d7a:	80 31       	cpi	r24, 0x10	; 16
     d7c:	08 f0       	brcs	.+2      	; 0xd80 <_ZN11ADConverterC1EhhPFijE+0x18>
     d7e:	47 c0       	rjmp	.+142    	; 0xe0e <_ZN11ADConverterC1EhhPFijE+0xa6>
     d80:	81 11       	cpse	r24, r1
     d82:	12 c0       	rjmp	.+36     	; 0xda8 <_ZN11ADConverterC1EhhPFijE+0x40>
     d84:	a4 e6       	ldi	r26, 0x64	; 100
     d86:	b0 e0       	ldi	r27, 0x00	; 0
     d88:	8c 91       	ld	r24, X
     d8a:	8e 7f       	andi	r24, 0xFE	; 254
     d8c:	8c 93       	st	X, r24
     d8e:	aa e7       	ldi	r26, 0x7A	; 122
     d90:	b0 e0       	ldi	r27, 0x00	; 0
     d92:	8c 91       	ld	r24, X
     d94:	87 60       	ori	r24, 0x07	; 7
     d96:	8c 93       	st	X, r24
     d98:	ac e7       	ldi	r26, 0x7C	; 124
     d9a:	b0 e0       	ldi	r27, 0x00	; 0
     d9c:	8c 91       	ld	r24, X
     d9e:	80 64       	ori	r24, 0x40	; 64
     da0:	8c 93       	st	X, r24
     da2:	8c 91       	ld	r24, X
     da4:	8f 7d       	andi	r24, 0xDF	; 223
     da6:	8c 93       	st	X, r24
     da8:	68 30       	cpi	r22, 0x08	; 8
     daa:	78 f0       	brcs	.+30     	; 0xdca <_ZN11ADConverterC1EhhPFijE+0x62>
     dac:	ad e7       	ldi	r26, 0x7D	; 125
     dae:	b0 e0       	ldi	r27, 0x00	; 0
     db0:	2c 91       	ld	r18, X
     db2:	36 2f       	mov	r19, r22
     db4:	37 70       	andi	r19, 0x07	; 7
     db6:	81 e0       	ldi	r24, 0x01	; 1
     db8:	90 e0       	ldi	r25, 0x00	; 0
     dba:	02 c0       	rjmp	.+4      	; 0xdc0 <_ZN11ADConverterC1EhhPFijE+0x58>
     dbc:	88 0f       	add	r24, r24
     dbe:	99 1f       	adc	r25, r25
     dc0:	3a 95       	dec	r19
     dc2:	e2 f7       	brpl	.-8      	; 0xdbc <_ZN11ADConverterC1EhhPFijE+0x54>
     dc4:	82 2b       	or	r24, r18
     dc6:	8c 93       	st	X, r24
     dc8:	0d c0       	rjmp	.+26     	; 0xde4 <_ZN11ADConverterC1EhhPFijE+0x7c>
     dca:	ae e7       	ldi	r26, 0x7E	; 126
     dcc:	b0 e0       	ldi	r27, 0x00	; 0
     dce:	2c 91       	ld	r18, X
     dd0:	81 e0       	ldi	r24, 0x01	; 1
     dd2:	90 e0       	ldi	r25, 0x00	; 0
     dd4:	06 2e       	mov	r0, r22
     dd6:	02 c0       	rjmp	.+4      	; 0xddc <_ZN11ADConverterC1EhhPFijE+0x74>
     dd8:	88 0f       	add	r24, r24
     dda:	99 1f       	adc	r25, r25
     ddc:	0a 94       	dec	r0
     dde:	e2 f7       	brpl	.-8      	; 0xdd8 <_ZN11ADConverterC1EhhPFijE+0x70>
     de0:	82 2b       	or	r24, r18
     de2:	8c 93       	st	X, r24
     de4:	86 81       	ldd	r24, Z+6	; 0x06
     de6:	87 83       	std	Z+7, r24	; 0x07
     de8:	12 82       	std	Z+2, r1	; 0x02
     dea:	11 82       	std	Z+1, r1	; 0x01
     dec:	14 82       	std	Z+4, r1	; 0x04
     dee:	13 82       	std	Z+3, r1	; 0x03
     df0:	15 82       	std	Z+5, r1	; 0x05
     df2:	60 83       	st	Z, r22
     df4:	a0 91 7b 03 	lds	r26, 0x037B	; 0x80037b <_ZN11ADConverter8inst_cntE>
     df8:	81 e0       	ldi	r24, 0x01	; 1
     dfa:	8a 0f       	add	r24, r26
     dfc:	80 93 7b 03 	sts	0x037B, r24	; 0x80037b <_ZN11ADConverter8inst_cntE>
     e00:	b0 e0       	ldi	r27, 0x00	; 0
     e02:	aa 0f       	add	r26, r26
     e04:	bb 1f       	adc	r27, r27
     e06:	a5 5a       	subi	r26, 0xA5	; 165
     e08:	bc 4f       	sbci	r27, 0xFC	; 252
     e0a:	ed 93       	st	X+, r30
     e0c:	fc 93       	st	X, r31
     e0e:	08 95       	ret

00000e10 <_ZN11ADConverter9get_valueEv>:
     e10:	cf 93       	push	r28
     e12:	df 93       	push	r29
     e14:	ec 01       	movw	r28, r24
     e16:	ec e7       	ldi	r30, 0x7C	; 124
     e18:	f0 e0       	ldi	r31, 0x00	; 0
     e1a:	80 81       	ld	r24, Z
     e1c:	88 7f       	andi	r24, 0xF8	; 248
     e1e:	80 83       	st	Z, r24
     e20:	90 81       	ld	r25, Z
     e22:	88 81       	ld	r24, Y
     e24:	87 70       	andi	r24, 0x07	; 7
     e26:	89 2b       	or	r24, r25
     e28:	80 83       	st	Z, r24
     e2a:	88 81       	ld	r24, Y
     e2c:	88 30       	cpi	r24, 0x08	; 8
     e2e:	30 f0       	brcs	.+12     	; 0xe3c <_ZN11ADConverter9get_valueEv+0x2c>
     e30:	eb e7       	ldi	r30, 0x7B	; 123
     e32:	f0 e0       	ldi	r31, 0x00	; 0
     e34:	80 81       	ld	r24, Z
     e36:	88 60       	ori	r24, 0x08	; 8
     e38:	80 83       	st	Z, r24
     e3a:	05 c0       	rjmp	.+10     	; 0xe46 <_ZN11ADConverter9get_valueEv+0x36>
     e3c:	eb e7       	ldi	r30, 0x7B	; 123
     e3e:	f0 e0       	ldi	r31, 0x00	; 0
     e40:	80 81       	ld	r24, Z
     e42:	87 7f       	andi	r24, 0xF7	; 247
     e44:	80 83       	st	Z, r24
     e46:	ea e7       	ldi	r30, 0x7A	; 122
     e48:	f0 e0       	ldi	r31, 0x00	; 0
     e4a:	80 81       	ld	r24, Z
     e4c:	80 68       	ori	r24, 0x80	; 128
     e4e:	80 83       	st	Z, r24
     e50:	80 81       	ld	r24, Z
     e52:	86 fd       	sbrc	r24, 6
     e54:	fd cf       	rjmp	.-6      	; 0xe50 <_ZN11ADConverter9get_valueEv+0x40>
     e56:	6e 81       	ldd	r22, Y+6	; 0x06
     e58:	66 23       	and	r22, r22
     e5a:	e9 f0       	breq	.+58     	; 0xe96 <_ZN11ADConverter9get_valueEv+0x86>
     e5c:	20 e0       	ldi	r18, 0x00	; 0
     e5e:	30 e0       	ldi	r19, 0x00	; 0
     e60:	ea e7       	ldi	r30, 0x7A	; 122
     e62:	f0 e0       	ldi	r31, 0x00	; 0
     e64:	a8 e7       	ldi	r26, 0x78	; 120
     e66:	b0 e0       	ldi	r27, 0x00	; 0
     e68:	80 81       	ld	r24, Z
     e6a:	80 64       	ori	r24, 0x40	; 64
     e6c:	80 83       	st	Z, r24
     e6e:	80 81       	ld	r24, Z
     e70:	86 fd       	sbrc	r24, 6
     e72:	fd cf       	rjmp	.-6      	; 0xe6e <_ZN11ADConverter9get_valueEv+0x5e>
     e74:	4d 91       	ld	r20, X+
     e76:	5c 91       	ld	r21, X
     e78:	11 97       	sbiw	r26, 0x01	; 1
     e7a:	89 81       	ldd	r24, Y+1	; 0x01
     e7c:	9a 81       	ldd	r25, Y+2	; 0x02
     e7e:	84 0f       	add	r24, r20
     e80:	95 1f       	adc	r25, r21
     e82:	9a 83       	std	Y+2, r25	; 0x02
     e84:	89 83       	std	Y+1, r24	; 0x01
     e86:	2f 5f       	subi	r18, 0xFF	; 255
     e88:	3f 4f       	sbci	r19, 0xFF	; 255
     e8a:	6e 81       	ldd	r22, Y+6	; 0x06
     e8c:	86 2f       	mov	r24, r22
     e8e:	90 e0       	ldi	r25, 0x00	; 0
     e90:	28 17       	cp	r18, r24
     e92:	39 07       	cpc	r19, r25
     e94:	4c f3       	brlt	.-46     	; 0xe68 <_ZN11ADConverter9get_valueEv+0x58>
     e96:	89 81       	ldd	r24, Y+1	; 0x01
     e98:	9a 81       	ldd	r25, Y+2	; 0x02
     e9a:	70 e0       	ldi	r23, 0x00	; 0
     e9c:	0e 94 3c 16 	call	0x2c78	; 0x2c78 <__udivmodhi4>
     ea0:	7a 83       	std	Y+2, r23	; 0x02
     ea2:	69 83       	std	Y+1, r22	; 0x01
     ea4:	ea e7       	ldi	r30, 0x7A	; 122
     ea6:	f0 e0       	ldi	r31, 0x00	; 0
     ea8:	80 81       	ld	r24, Z
     eaa:	8f 77       	andi	r24, 0x7F	; 127
     eac:	80 83       	st	Z, r24
     eae:	89 81       	ldd	r24, Y+1	; 0x01
     eb0:	9a 81       	ldd	r25, Y+2	; 0x02
     eb2:	e8 85       	ldd	r30, Y+8	; 0x08
     eb4:	f9 85       	ldd	r31, Y+9	; 0x09
     eb6:	19 95       	eicall
     eb8:	1a 82       	std	Y+2, r1	; 0x02
     eba:	19 82       	std	Y+1, r1	; 0x01
     ebc:	1d 82       	std	Y+5, r1	; 0x05
     ebe:	df 91       	pop	r29
     ec0:	cf 91       	pop	r28
     ec2:	08 95       	ret

00000ec4 <_ZN11DigiPortRaw5writeEh>:
     ec4:	dc 01       	movw	r26, r24
     ec6:	2f b7       	in	r18, 0x3f	; 63
    return 1;
}

static __inline__ uint8_t __iCliRetVal(void)
{
    cli();
     ec8:	f8 94       	cli
     eca:	12 96       	adiw	r26, 0x02	; 2
     ecc:	ed 91       	ld	r30, X+
     ece:	fc 91       	ld	r31, X
     ed0:	13 97       	sbiw	r26, 0x03	; 3
     ed2:	14 96       	adiw	r26, 0x04	; 4
     ed4:	9c 91       	ld	r25, X
     ed6:	14 97       	sbiw	r26, 0x04	; 4
     ed8:	15 96       	adiw	r26, 0x05	; 5
     eda:	8c 91       	ld	r24, X
     edc:	8f 3f       	cpi	r24, 0xFF	; 255
     ede:	09 f0       	breq	.+2      	; 0xee2 <_ZN11DigiPortRaw5writeEh+0x1e>
     ee0:	60 95       	com	r22
     ee2:	69 23       	and	r22, r25
     ee4:	62 83       	std	Z+2, r22	; 0x02
    (void)__s;
}

static __inline__ void __iRestore(const  uint8_t *__s)
{
    SREG = *__s;
     ee6:	2f bf       	out	0x3f, r18	; 63
    __asm__ volatile ("" ::: "memory");
     ee8:	08 95       	ret

00000eea <_ZN11DigiPortRaw2onEh>:
     eea:	fc 01       	movw	r30, r24
     eec:	2f b7       	in	r18, 0x3f	; 63
     eee:	f8 94       	cli
     ef0:	85 81       	ldd	r24, Z+5	; 0x05
     ef2:	8f 3f       	cpi	r24, 0xFF	; 255
     ef4:	59 f4       	brne	.+22     	; 0xf0c <_ZN11DigiPortRaw2onEh+0x22>
     ef6:	a2 81       	ldd	r26, Z+2	; 0x02
     ef8:	b3 81       	ldd	r27, Z+3	; 0x03
     efa:	12 96       	adiw	r26, 0x02	; 2
     efc:	8c 91       	ld	r24, X
     efe:	12 97       	sbiw	r26, 0x02	; 2
     f00:	94 81       	ldd	r25, Z+4	; 0x04
     f02:	69 23       	and	r22, r25
     f04:	68 2b       	or	r22, r24
     f06:	12 96       	adiw	r26, 0x02	; 2
     f08:	6c 93       	st	X, r22
     f0a:	0b c0       	rjmp	.+22     	; 0xf22 <_ZN11DigiPortRaw2onEh+0x38>
     f0c:	a2 81       	ldd	r26, Z+2	; 0x02
     f0e:	b3 81       	ldd	r27, Z+3	; 0x03
     f10:	12 96       	adiw	r26, 0x02	; 2
     f12:	9c 91       	ld	r25, X
     f14:	12 97       	sbiw	r26, 0x02	; 2
     f16:	84 81       	ldd	r24, Z+4	; 0x04
     f18:	89 23       	and	r24, r25
     f1a:	60 95       	com	r22
     f1c:	68 23       	and	r22, r24
     f1e:	12 96       	adiw	r26, 0x02	; 2
     f20:	6c 93       	st	X, r22
     f22:	2f bf       	out	0x3f, r18	; 63
     f24:	08 95       	ret

00000f26 <_ZN11DigiPortRaw3offEh>:
     f26:	fc 01       	movw	r30, r24
     f28:	2f b7       	in	r18, 0x3f	; 63
     f2a:	f8 94       	cli
     f2c:	85 81       	ldd	r24, Z+5	; 0x05
     f2e:	8f 3f       	cpi	r24, 0xFF	; 255
     f30:	61 f4       	brne	.+24     	; 0xf4a <_ZN11DigiPortRaw3offEh+0x24>
     f32:	a2 81       	ldd	r26, Z+2	; 0x02
     f34:	b3 81       	ldd	r27, Z+3	; 0x03
     f36:	12 96       	adiw	r26, 0x02	; 2
     f38:	9c 91       	ld	r25, X
     f3a:	12 97       	sbiw	r26, 0x02	; 2
     f3c:	84 81       	ldd	r24, Z+4	; 0x04
     f3e:	89 23       	and	r24, r25
     f40:	60 95       	com	r22
     f42:	68 23       	and	r22, r24
     f44:	12 96       	adiw	r26, 0x02	; 2
     f46:	6c 93       	st	X, r22
     f48:	0a c0       	rjmp	.+20     	; 0xf5e <_ZN11DigiPortRaw3offEh+0x38>
     f4a:	a2 81       	ldd	r26, Z+2	; 0x02
     f4c:	b3 81       	ldd	r27, Z+3	; 0x03
     f4e:	12 96       	adiw	r26, 0x02	; 2
     f50:	9c 91       	ld	r25, X
     f52:	12 97       	sbiw	r26, 0x02	; 2
     f54:	84 81       	ldd	r24, Z+4	; 0x04
     f56:	68 23       	and	r22, r24
     f58:	69 2b       	or	r22, r25
     f5a:	12 96       	adiw	r26, 0x02	; 2
     f5c:	6c 93       	st	X, r22
     f5e:	2f bf       	out	0x3f, r18	; 63
     f60:	08 95       	ret

00000f62 <_ZN11DigiPortRaw6toggleEh>:
     f62:	dc 01       	movw	r26, r24
     f64:	2f b7       	in	r18, 0x3f	; 63
     f66:	f8 94       	cli
     f68:	12 96       	adiw	r26, 0x02	; 2
     f6a:	ed 91       	ld	r30, X+
     f6c:	fc 91       	ld	r31, X
     f6e:	13 97       	sbiw	r26, 0x03	; 3
     f70:	92 81       	ldd	r25, Z+2	; 0x02
     f72:	14 96       	adiw	r26, 0x04	; 4
     f74:	8c 91       	ld	r24, X
     f76:	68 23       	and	r22, r24
     f78:	69 27       	eor	r22, r25
     f7a:	62 83       	std	Z+2, r22	; 0x02
     f7c:	2f bf       	out	0x3f, r18	; 63
     f7e:	08 95       	ret

00000f80 <_ZN11DigiPortRaw8read_rawEh>:
     f80:	fc 01       	movw	r30, r24
     f82:	2f b7       	in	r18, 0x3f	; 63
    return 1;
}

static __inline__ uint8_t __iCliRetVal(void)
{
    cli();
     f84:	f8 94       	cli
     f86:	84 81       	ldd	r24, Z+4	; 0x04
     f88:	80 95       	com	r24
     f8a:	68 23       	and	r22, r24
     f8c:	85 81       	ldd	r24, Z+5	; 0x05
     f8e:	8f 3f       	cpi	r24, 0xFF	; 255
     f90:	29 f4       	brne	.+10     	; 0xf9c <_ZN11DigiPortRaw8read_rawEh+0x1c>
     f92:	02 80       	ldd	r0, Z+2	; 0x02
     f94:	f3 81       	ldd	r31, Z+3	; 0x03
     f96:	e0 2d       	mov	r30, r0
     f98:	80 81       	ld	r24, Z
     f9a:	06 c0       	rjmp	.+12     	; 0xfa8 <_ZN11DigiPortRaw8read_rawEh+0x28>
     f9c:	02 80       	ldd	r0, Z+2	; 0x02
     f9e:	f3 81       	ldd	r31, Z+3	; 0x03
     fa0:	e0 2d       	mov	r30, r0
     fa2:	90 81       	ld	r25, Z
     fa4:	89 2f       	mov	r24, r25
     fa6:	80 95       	com	r24
    (void)__s;
}

static __inline__ void __iRestore(const  uint8_t *__s)
{
    SREG = *__s;
     fa8:	2f bf       	out	0x3f, r18	; 63
     faa:	86 23       	and	r24, r22
     fac:	08 95       	ret

00000fae <_ZN12DigiPortIRPT6notifyEv>:
     fae:	cf 93       	push	r28
     fb0:	df 93       	push	r29
     fb2:	ec 01       	movw	r28, r24
     fb4:	e8 81       	ld	r30, Y
     fb6:	f9 81       	ldd	r31, Y+1	; 0x01
     fb8:	00 84       	ldd	r0, Z+8	; 0x08
     fba:	f1 85       	ldd	r31, Z+9	; 0x09
     fbc:	e0 2d       	mov	r30, r0
     fbe:	6f ef       	ldi	r22, 0xFF	; 255
     fc0:	19 95       	eicall
     fc2:	9a 85       	ldd	r25, Y+10	; 0x0a
     fc4:	28 85       	ldd	r18, Y+8	; 0x08
     fc6:	38 2f       	mov	r19, r24
     fc8:	30 95       	com	r19
     fca:	93 23       	and	r25, r19
     fcc:	92 2b       	or	r25, r18
     fce:	98 87       	std	Y+8, r25	; 0x08
     fd0:	9a 85       	ldd	r25, Y+10	; 0x0a
     fd2:	29 85       	ldd	r18, Y+9	; 0x09
     fd4:	90 95       	com	r25
     fd6:	98 23       	and	r25, r24
     fd8:	92 2b       	or	r25, r18
     fda:	99 87       	std	Y+9, r25	; 0x09
     fdc:	8a 87       	std	Y+10, r24	; 0x0a
     fde:	ee 81       	ldd	r30, Y+6	; 0x06
     fe0:	ff 81       	ldd	r31, Y+7	; 0x07
     fe2:	30 97       	sbiw	r30, 0x00	; 0
     fe4:	09 f0       	breq	.+2      	; 0xfe8 <_ZN12DigiPortIRPT6notifyEv+0x3a>
     fe6:	19 95       	eicall
     fe8:	df 91       	pop	r29
     fea:	cf 91       	pop	r28
     fec:	08 95       	ret

00000fee <_ZN11DigiPortRaw13read_blockingEh>:
     fee:	ef 92       	push	r14
     ff0:	ff 92       	push	r15
     ff2:	1f 93       	push	r17
     ff4:	cf 93       	push	r28
     ff6:	df 93       	push	r29
     ff8:	7c 01       	movw	r14, r24
     ffa:	d6 2f       	mov	r29, r22
     ffc:	1f b7       	in	r17, 0x3f	; 63
     ffe:	f8 94       	cli
    1000:	d7 01       	movw	r26, r14
    1002:	14 96       	adiw	r26, 0x04	; 4
    1004:	6c 91       	ld	r22, X
    1006:	14 97       	sbiw	r26, 0x04	; 4
    1008:	60 95       	com	r22
    100a:	ed 91       	ld	r30, X+
    100c:	fc 91       	ld	r31, X
    100e:	00 84       	ldd	r0, Z+8	; 0x08
    1010:	f1 85       	ldd	r31, Z+9	; 0x09
    1012:	e0 2d       	mov	r30, r0
    1014:	c7 01       	movw	r24, r14
    1016:	19 95       	eicall
    1018:	c8 2f       	mov	r28, r24
    101a:	80 95       	com	r24
    101c:	8d 23       	and	r24, r29
    101e:	09 f4       	brne	.+2      	; 0x1022 <__EEPROM_REGION_LENGTH__+0x22>
    1020:	09 d4       	rcall	.+2066   	; 0x1834 <_Z5yieldv>
    1022:	1f bf       	out	0x3f, r17	; 63
    1024:	8c 2f       	mov	r24, r28
    1026:	8d 23       	and	r24, r29
    1028:	49 f3       	breq	.-46     	; 0xffc <_ZN11DigiPortRaw13read_blockingEh+0xe>
    102a:	8c 2f       	mov	r24, r28
    102c:	df 91       	pop	r29
    102e:	cf 91       	pop	r28
    1030:	1f 91       	pop	r17
    1032:	ff 90       	pop	r15
    1034:	ef 90       	pop	r14
    1036:	08 95       	ret

00001038 <_ZN11DigiPortRawC1Ehhh>:
    1038:	0f 93       	push	r16
    103a:	1f 93       	push	r17
    103c:	cf 93       	push	r28
    103e:	df 93       	push	r29
    1040:	8c 01       	movw	r16, r24
    1042:	86 2f       	mov	r24, r22
    1044:	d4 2f       	mov	r29, r20
    1046:	c2 2f       	mov	r28, r18
    1048:	22 e3       	ldi	r18, 0x32	; 50
    104a:	32 e0       	ldi	r19, 0x02	; 2
    104c:	d8 01       	movw	r26, r16
    104e:	2d 93       	st	X+, r18
    1050:	3c 93       	st	X, r19
    1052:	0e 94 f3 15 	call	0x2be6	; 0x2be6 <_Z22port_handle_to_addressh>
    1056:	f8 01       	movw	r30, r16
    1058:	93 83       	std	Z+3, r25	; 0x03
    105a:	82 83       	std	Z+2, r24	; 0x02
    105c:	d4 83       	std	Z+4, r29	; 0x04
    105e:	c5 83       	std	Z+5, r28	; 0x05
    1060:	00 97       	sbiw	r24, 0x00	; 0
    1062:	49 f0       	breq	.+18     	; 0x1076 <_ZN11DigiPortRawC1Ehhh+0x3e>
    1064:	dc 01       	movw	r26, r24
    1066:	11 96       	adiw	r26, 0x01	; 1
    1068:	dc 93       	st	X, r29
    106a:	02 80       	ldd	r0, Z+2	; 0x02
    106c:	f3 81       	ldd	r31, Z+3	; 0x03
    106e:	e0 2d       	mov	r30, r0
    1070:	cd 2b       	or	r28, r29
    1072:	c0 95       	com	r28
    1074:	c2 83       	std	Z+2, r28	; 0x02
    1076:	df 91       	pop	r29
    1078:	cf 91       	pop	r28
    107a:	1f 91       	pop	r17
    107c:	0f 91       	pop	r16
    107e:	08 95       	ret

00001080 <__vector_9>:
    1080:	1f 92       	push	r1
    1082:	0f 92       	push	r0
    1084:	0f b6       	in	r0, 0x3f	; 63
    1086:	0f 92       	push	r0
    1088:	11 24       	eor	r1, r1
    108a:	0b b6       	in	r0, 0x3b	; 59
    108c:	0f 92       	push	r0
    108e:	2f 93       	push	r18
    1090:	3f 93       	push	r19
    1092:	4f 93       	push	r20
    1094:	5f 93       	push	r21
    1096:	6f 93       	push	r22
    1098:	7f 93       	push	r23
    109a:	8f 93       	push	r24
    109c:	9f 93       	push	r25
    109e:	af 93       	push	r26
    10a0:	bf 93       	push	r27
    10a2:	ef 93       	push	r30
    10a4:	ff 93       	push	r31
    10a6:	80 91 7c 03 	lds	r24, 0x037C	; 0x80037c <dp_obj>
    10aa:	90 91 7d 03 	lds	r25, 0x037D	; 0x80037d <dp_obj+0x1>
    10ae:	00 97       	sbiw	r24, 0x00	; 0
    10b0:	39 f0       	breq	.+14     	; 0x10c0 <__vector_9+0x40>
    10b2:	dc 01       	movw	r26, r24
    10b4:	ed 91       	ld	r30, X+
    10b6:	fc 91       	ld	r31, X
    10b8:	04 84       	ldd	r0, Z+12	; 0x0c
    10ba:	f5 85       	ldd	r31, Z+13	; 0x0d
    10bc:	e0 2d       	mov	r30, r0
    10be:	19 95       	eicall
    10c0:	ff 91       	pop	r31
    10c2:	ef 91       	pop	r30
    10c4:	bf 91       	pop	r27
    10c6:	af 91       	pop	r26
    10c8:	9f 91       	pop	r25
    10ca:	8f 91       	pop	r24
    10cc:	7f 91       	pop	r23
    10ce:	6f 91       	pop	r22
    10d0:	5f 91       	pop	r21
    10d2:	4f 91       	pop	r20
    10d4:	3f 91       	pop	r19
    10d6:	2f 91       	pop	r18
    10d8:	0f 90       	pop	r0
    10da:	0b be       	out	0x3b, r0	; 59
    10dc:	0f 90       	pop	r0
    10de:	0f be       	out	0x3f, r0	; 63
    10e0:	0f 90       	pop	r0
    10e2:	1f 90       	pop	r1
    10e4:	18 95       	reti

000010e6 <__vector_10>:
    10e6:	1f 92       	push	r1
    10e8:	0f 92       	push	r0
    10ea:	0f b6       	in	r0, 0x3f	; 63
    10ec:	0f 92       	push	r0
    10ee:	11 24       	eor	r1, r1
    10f0:	0b b6       	in	r0, 0x3b	; 59
    10f2:	0f 92       	push	r0
    10f4:	2f 93       	push	r18
    10f6:	3f 93       	push	r19
    10f8:	4f 93       	push	r20
    10fa:	5f 93       	push	r21
    10fc:	6f 93       	push	r22
    10fe:	7f 93       	push	r23
    1100:	8f 93       	push	r24
    1102:	9f 93       	push	r25
    1104:	af 93       	push	r26
    1106:	bf 93       	push	r27
    1108:	ef 93       	push	r30
    110a:	ff 93       	push	r31
    110c:	80 91 80 03 	lds	r24, 0x0380	; 0x800380 <dp_obj+0x4>
    1110:	90 91 81 03 	lds	r25, 0x0381	; 0x800381 <dp_obj+0x5>
    1114:	00 97       	sbiw	r24, 0x00	; 0
    1116:	39 f0       	breq	.+14     	; 0x1126 <__vector_10+0x40>
    1118:	dc 01       	movw	r26, r24
    111a:	ed 91       	ld	r30, X+
    111c:	fc 91       	ld	r31, X
    111e:	04 84       	ldd	r0, Z+12	; 0x0c
    1120:	f5 85       	ldd	r31, Z+13	; 0x0d
    1122:	e0 2d       	mov	r30, r0
    1124:	19 95       	eicall
    1126:	ff 91       	pop	r31
    1128:	ef 91       	pop	r30
    112a:	bf 91       	pop	r27
    112c:	af 91       	pop	r26
    112e:	9f 91       	pop	r25
    1130:	8f 91       	pop	r24
    1132:	7f 91       	pop	r23
    1134:	6f 91       	pop	r22
    1136:	5f 91       	pop	r21
    1138:	4f 91       	pop	r20
    113a:	3f 91       	pop	r19
    113c:	2f 91       	pop	r18
    113e:	0f 90       	pop	r0
    1140:	0b be       	out	0x3b, r0	; 59
    1142:	0f 90       	pop	r0
    1144:	0f be       	out	0x3f, r0	; 63
    1146:	0f 90       	pop	r0
    1148:	1f 90       	pop	r1
    114a:	18 95       	reti

0000114c <__vector_11>:
    114c:	1f 92       	push	r1
    114e:	0f 92       	push	r0
    1150:	0f b6       	in	r0, 0x3f	; 63
    1152:	0f 92       	push	r0
    1154:	11 24       	eor	r1, r1
    1156:	0b b6       	in	r0, 0x3b	; 59
    1158:	0f 92       	push	r0
    115a:	2f 93       	push	r18
    115c:	3f 93       	push	r19
    115e:	4f 93       	push	r20
    1160:	5f 93       	push	r21
    1162:	6f 93       	push	r22
    1164:	7f 93       	push	r23
    1166:	8f 93       	push	r24
    1168:	9f 93       	push	r25
    116a:	af 93       	push	r26
    116c:	bf 93       	push	r27
    116e:	ef 93       	push	r30
    1170:	ff 93       	push	r31
    1172:	80 91 7e 03 	lds	r24, 0x037E	; 0x80037e <dp_obj+0x2>
    1176:	90 91 7f 03 	lds	r25, 0x037F	; 0x80037f <dp_obj+0x3>
    117a:	00 97       	sbiw	r24, 0x00	; 0
    117c:	39 f0       	breq	.+14     	; 0x118c <__vector_11+0x40>
    117e:	dc 01       	movw	r26, r24
    1180:	ed 91       	ld	r30, X+
    1182:	fc 91       	ld	r31, X
    1184:	04 84       	ldd	r0, Z+12	; 0x0c
    1186:	f5 85       	ldd	r31, Z+13	; 0x0d
    1188:	e0 2d       	mov	r30, r0
    118a:	19 95       	eicall
    118c:	ff 91       	pop	r31
    118e:	ef 91       	pop	r30
    1190:	bf 91       	pop	r27
    1192:	af 91       	pop	r26
    1194:	9f 91       	pop	r25
    1196:	8f 91       	pop	r24
    1198:	7f 91       	pop	r23
    119a:	6f 91       	pop	r22
    119c:	5f 91       	pop	r21
    119e:	4f 91       	pop	r20
    11a0:	3f 91       	pop	r19
    11a2:	2f 91       	pop	r18
    11a4:	0f 90       	pop	r0
    11a6:	0b be       	out	0x3b, r0	; 59
    11a8:	0f 90       	pop	r0
    11aa:	0f be       	out	0x3f, r0	; 63
    11ac:	0f 90       	pop	r0
    11ae:	1f 90       	pop	r1
    11b0:	18 95       	reti

000011b2 <_ZN12DigiPortIRPTC1EhhhPFvvE>:
    11b2:	ff 92       	push	r15
    11b4:	0f 93       	push	r16
    11b6:	1f 93       	push	r17
    11b8:	cf 93       	push	r28
    11ba:	df 93       	push	r29
    11bc:	ec 01       	movw	r28, r24
    11be:	f6 2e       	mov	r15, r22
    11c0:	3b df       	rcall	.-394    	; 0x1038 <_ZN11DigiPortRawC1Ehhh>
    11c2:	80 e2       	ldi	r24, 0x20	; 32
    11c4:	92 e0       	ldi	r25, 0x02	; 2
    11c6:	99 83       	std	Y+1, r25	; 0x01
    11c8:	88 83       	st	Y, r24
    11ca:	1f 83       	std	Y+7, r17	; 0x07
    11cc:	0e 83       	std	Y+6, r16	; 0x06
    11ce:	18 86       	std	Y+8, r1	; 0x08
    11d0:	19 86       	std	Y+9, r1	; 0x09
    11d2:	1a 86       	std	Y+10, r1	; 0x0a
    11d4:	81 e0       	ldi	r24, 0x01	; 1
    11d6:	f8 12       	cpse	r15, r24
    11d8:	0e c0       	rjmp	.+28     	; 0x11f6 <_ZN12DigiPortIRPTC1EhhhPFvvE+0x44>
    11da:	d0 93 7d 03 	sts	0x037D, r29	; 0x80037d <dp_obj+0x1>
    11de:	c0 93 7c 03 	sts	0x037C, r28	; 0x80037c <dp_obj>
    11e2:	e8 e6       	ldi	r30, 0x68	; 104
    11e4:	f0 e0       	ldi	r31, 0x00	; 0
    11e6:	80 81       	ld	r24, Z
    11e8:	81 60       	ori	r24, 0x01	; 1
    11ea:	80 83       	st	Z, r24
    11ec:	8c 81       	ldd	r24, Y+4	; 0x04
    11ee:	80 95       	com	r24
    11f0:	80 93 6b 00 	sts	0x006B, r24	; 0x80006b <__TEXT_REGION_LENGTH__+0x7c006b>
    11f4:	22 c0       	rjmp	.+68     	; 0x123a <_ZN12DigiPortIRPTC1EhhhPFvvE+0x88>
    11f6:	89 e0       	ldi	r24, 0x09	; 9
    11f8:	f8 12       	cpse	r15, r24
    11fa:	0e c0       	rjmp	.+28     	; 0x1218 <_ZN12DigiPortIRPTC1EhhhPFvvE+0x66>
    11fc:	d0 93 7f 03 	sts	0x037F, r29	; 0x80037f <dp_obj+0x3>
    1200:	c0 93 7e 03 	sts	0x037E, r28	; 0x80037e <dp_obj+0x2>
    1204:	e8 e6       	ldi	r30, 0x68	; 104
    1206:	f0 e0       	ldi	r31, 0x00	; 0
    1208:	80 81       	ld	r24, Z
    120a:	84 60       	ori	r24, 0x04	; 4
    120c:	80 83       	st	Z, r24
    120e:	8c 81       	ldd	r24, Y+4	; 0x04
    1210:	80 95       	com	r24
    1212:	80 93 6d 00 	sts	0x006D, r24	; 0x80006d <__TEXT_REGION_LENGTH__+0x7c006d>
    1216:	11 c0       	rjmp	.+34     	; 0x123a <_ZN12DigiPortIRPTC1EhhhPFvvE+0x88>
    1218:	88 e0       	ldi	r24, 0x08	; 8
    121a:	f8 12       	cpse	r15, r24
    121c:	0e c0       	rjmp	.+28     	; 0x123a <_ZN12DigiPortIRPTC1EhhhPFvvE+0x88>
    121e:	d0 93 81 03 	sts	0x0381, r29	; 0x800381 <dp_obj+0x5>
    1222:	c0 93 80 03 	sts	0x0380, r28	; 0x800380 <dp_obj+0x4>
    1226:	e8 e6       	ldi	r30, 0x68	; 104
    1228:	f0 e0       	ldi	r31, 0x00	; 0
    122a:	80 81       	ld	r24, Z
    122c:	82 60       	ori	r24, 0x02	; 2
    122e:	80 83       	st	Z, r24
    1230:	8c 81       	ldd	r24, Y+4	; 0x04
    1232:	80 95       	com	r24
    1234:	88 0f       	add	r24, r24
    1236:	80 93 6c 00 	sts	0x006C, r24	; 0x80006c <__TEXT_REGION_LENGTH__+0x7c006c>
    123a:	df 91       	pop	r29
    123c:	cf 91       	pop	r28
    123e:	1f 91       	pop	r17
    1240:	0f 91       	pop	r16
    1242:	ff 90       	pop	r15
    1244:	08 95       	ret

00001246 <_ZN3LCD10wait_readyEv>:
    1246:	cf 93       	push	r28
    1248:	df 93       	push	r29
    124a:	fc 01       	movw	r30, r24
    124c:	6f b7       	in	r22, 0x3f	; 63
    124e:	f8 94       	cli
    1250:	a2 81       	ldd	r26, Z+2	; 0x02
    1252:	b3 81       	ldd	r27, Z+3	; 0x03
    1254:	1c 92       	st	X, r1
    1256:	a2 81       	ldd	r26, Z+2	; 0x02
    1258:	b3 81       	ldd	r27, Z+3	; 0x03
    125a:	11 97       	sbiw	r26, 0x01	; 1
    125c:	80 ef       	ldi	r24, 0xF0	; 240
    125e:	8c 93       	st	X, r24
    1260:	a2 81       	ldd	r26, Z+2	; 0x02
    1262:	b3 81       	ldd	r27, Z+3	; 0x03
    1264:	8c 91       	ld	r24, X
    1266:	80 62       	ori	r24, 0x20	; 32
    1268:	8c 93       	st	X, r24
    126a:	81 e0       	ldi	r24, 0x01	; 1
    126c:	90 e0       	ldi	r25, 0x00	; 0
    126e:	a2 81       	ldd	r26, Z+2	; 0x02
    1270:	b3 81       	ldd	r27, Z+3	; 0x03
    1272:	4c 91       	ld	r20, X
    1274:	9c 01       	movw	r18, r24
    1276:	01 84       	ldd	r0, Z+9	; 0x09
    1278:	02 c0       	rjmp	.+4      	; 0x127e <_ZN3LCD10wait_readyEv+0x38>
    127a:	22 0f       	add	r18, r18
    127c:	33 1f       	adc	r19, r19
    127e:	0a 94       	dec	r0
    1280:	e2 f7       	brpl	.-8      	; 0x127a <_ZN3LCD10wait_readyEv+0x34>
    1282:	24 27       	eor	r18, r20
    1284:	2c 93       	st	X, r18
    1286:	25 e0       	ldi	r18, 0x05	; 5
    1288:	2a 95       	dec	r18
    128a:	f1 f7       	brne	.-4      	; 0x1288 <_ZN3LCD10wait_readyEv+0x42>
    128c:	00 00       	nop
    128e:	a2 81       	ldd	r26, Z+2	; 0x02
    1290:	b3 81       	ldd	r27, Z+3	; 0x03
    1292:	ed 01       	movw	r28, r26
    1294:	22 97       	sbiw	r28, 0x02	; 2
    1296:	28 81       	ld	r18, Y
    1298:	22 95       	swap	r18
    129a:	20 7f       	andi	r18, 0xF0	; 240
    129c:	3c 91       	ld	r19, X
    129e:	ac 01       	movw	r20, r24
    12a0:	01 84       	ldd	r0, Z+9	; 0x09
    12a2:	02 c0       	rjmp	.+4      	; 0x12a8 <_ZN3LCD10wait_readyEv+0x62>
    12a4:	44 0f       	add	r20, r20
    12a6:	55 1f       	adc	r21, r21
    12a8:	0a 94       	dec	r0
    12aa:	e2 f7       	brpl	.-8      	; 0x12a4 <_ZN3LCD10wait_readyEv+0x5e>
    12ac:	43 27       	eor	r20, r19
    12ae:	4c 93       	st	X, r20
    12b0:	3a e0       	ldi	r19, 0x0A	; 10
    12b2:	3a 95       	dec	r19
    12b4:	f1 f7       	brne	.-4      	; 0x12b2 <_ZN3LCD10wait_readyEv+0x6c>
    12b6:	00 c0       	rjmp	.+0      	; 0x12b8 <_ZN3LCD10wait_readyEv+0x72>
    12b8:	a2 81       	ldd	r26, Z+2	; 0x02
    12ba:	b3 81       	ldd	r27, Z+3	; 0x03
    12bc:	3c 91       	ld	r19, X
    12be:	ac 01       	movw	r20, r24
    12c0:	01 84       	ldd	r0, Z+9	; 0x09
    12c2:	02 c0       	rjmp	.+4      	; 0x12c8 <_ZN3LCD10wait_readyEv+0x82>
    12c4:	44 0f       	add	r20, r20
    12c6:	55 1f       	adc	r21, r21
    12c8:	0a 94       	dec	r0
    12ca:	e2 f7       	brpl	.-8      	; 0x12c4 <_ZN3LCD10wait_readyEv+0x7e>
    12cc:	43 27       	eor	r20, r19
    12ce:	4c 93       	st	X, r20
    12d0:	35 e0       	ldi	r19, 0x05	; 5
    12d2:	3a 95       	dec	r19
    12d4:	f1 f7       	brne	.-4      	; 0x12d2 <_ZN3LCD10wait_readyEv+0x8c>
    12d6:	00 00       	nop
    12d8:	a2 81       	ldd	r26, Z+2	; 0x02
    12da:	b3 81       	ldd	r27, Z+3	; 0x03
    12dc:	ed 01       	movw	r28, r26
    12de:	22 97       	sbiw	r28, 0x02	; 2
    12e0:	38 81       	ld	r19, Y
    12e2:	3c 91       	ld	r19, X
    12e4:	ac 01       	movw	r20, r24
    12e6:	01 84       	ldd	r0, Z+9	; 0x09
    12e8:	02 c0       	rjmp	.+4      	; 0x12ee <_ZN3LCD10wait_readyEv+0xa8>
    12ea:	44 0f       	add	r20, r20
    12ec:	55 1f       	adc	r21, r21
    12ee:	0a 94       	dec	r0
    12f0:	e2 f7       	brpl	.-8      	; 0x12ea <_ZN3LCD10wait_readyEv+0xa4>
    12f2:	43 27       	eor	r20, r19
    12f4:	4c 93       	st	X, r20
    12f6:	22 23       	and	r18, r18
    12f8:	0c f4       	brge	.+2      	; 0x12fc <_ZN3LCD10wait_readyEv+0xb6>
    12fa:	b9 cf       	rjmp	.-142    	; 0x126e <_ZN3LCD10wait_readyEv+0x28>
    12fc:	a2 81       	ldd	r26, Z+2	; 0x02
    12fe:	b3 81       	ldd	r27, Z+3	; 0x03
    1300:	8c 91       	ld	r24, X
    1302:	8f 7d       	andi	r24, 0xDF	; 223
    1304:	8c 93       	st	X, r24
    1306:	02 80       	ldd	r0, Z+2	; 0x02
    1308:	f3 81       	ldd	r31, Z+3	; 0x03
    130a:	e0 2d       	mov	r30, r0
    130c:	31 97       	sbiw	r30, 0x01	; 1
    130e:	8f ef       	ldi	r24, 0xFF	; 255
    1310:	80 83       	st	Z, r24
    1312:	6f bf       	out	0x3f, r22	; 63
    1314:	df 91       	pop	r29
    1316:	cf 91       	pop	r28
    1318:	08 95       	ret

0000131a <_ZN3LCD6enableEv>:
    131a:	fc 01       	movw	r30, r24
    131c:	4f b7       	in	r20, 0x3f	; 63
    131e:	f8 94       	cli
    1320:	a2 81       	ldd	r26, Z+2	; 0x02
    1322:	b3 81       	ldd	r27, Z+3	; 0x03
    1324:	5c 91       	ld	r21, X
    1326:	21 e0       	ldi	r18, 0x01	; 1
    1328:	30 e0       	ldi	r19, 0x00	; 0
    132a:	c9 01       	movw	r24, r18
    132c:	01 84       	ldd	r0, Z+9	; 0x09
    132e:	02 c0       	rjmp	.+4      	; 0x1334 <_ZN3LCD6enableEv+0x1a>
    1330:	88 0f       	add	r24, r24
    1332:	99 1f       	adc	r25, r25
    1334:	0a 94       	dec	r0
    1336:	e2 f7       	brpl	.-8      	; 0x1330 <_ZN3LCD6enableEv+0x16>
    1338:	85 27       	eor	r24, r21
    133a:	8c 93       	st	X, r24
    133c:	85 e0       	ldi	r24, 0x05	; 5
    133e:	8a 95       	dec	r24
    1340:	f1 f7       	brne	.-4      	; 0x133e <_ZN3LCD6enableEv+0x24>
    1342:	00 00       	nop
    1344:	a2 81       	ldd	r26, Z+2	; 0x02
    1346:	b3 81       	ldd	r27, Z+3	; 0x03
    1348:	8c 91       	ld	r24, X
    134a:	01 84       	ldd	r0, Z+9	; 0x09
    134c:	02 c0       	rjmp	.+4      	; 0x1352 <_ZN3LCD6enableEv+0x38>
    134e:	22 0f       	add	r18, r18
    1350:	33 1f       	adc	r19, r19
    1352:	0a 94       	dec	r0
    1354:	e2 f7       	brpl	.-8      	; 0x134e <_ZN3LCD6enableEv+0x34>
    1356:	28 27       	eor	r18, r24
    1358:	2c 93       	st	X, r18
    135a:	4f bf       	out	0x3f, r20	; 63
    135c:	08 95       	ret

0000135e <_ZN3LCD7commandEh>:
    135e:	ef 92       	push	r14
    1360:	ff 92       	push	r15
    1362:	0f 93       	push	r16
    1364:	1f 93       	push	r17
    1366:	cf 93       	push	r28
    1368:	df 93       	push	r29
    136a:	ec 01       	movw	r28, r24
    136c:	06 2f       	mov	r16, r22
    136e:	8c 81       	ldd	r24, Y+4	; 0x04
    1370:	89 30       	cpi	r24, 0x09	; 9
    1372:	11 f0       	breq	.+4      	; 0x1378 <_ZN3LCD7commandEh+0x1a>
    1374:	ce 01       	movw	r24, r28
    1376:	67 df       	rcall	.-306    	; 0x1246 <_ZN3LCD10wait_readyEv>
    1378:	1f b7       	in	r17, 0x3f	; 63
    137a:	f8 94       	cli
    137c:	e0 2e       	mov	r14, r16
    137e:	f1 2c       	mov	r15, r1
    1380:	f5 94       	asr	r15
    1382:	e7 94       	ror	r14
    1384:	f5 94       	asr	r15
    1386:	e7 94       	ror	r14
    1388:	f5 94       	asr	r15
    138a:	e7 94       	ror	r14
    138c:	f5 94       	asr	r15
    138e:	e7 94       	ror	r14
    1390:	ea 81       	ldd	r30, Y+2	; 0x02
    1392:	fb 81       	ldd	r31, Y+3	; 0x03
    1394:	e0 82       	st	Z, r14
    1396:	ce 01       	movw	r24, r28
    1398:	c0 df       	rcall	.-128    	; 0x131a <_ZN3LCD6enableEv>
    139a:	0f 70       	andi	r16, 0x0F	; 15
    139c:	ea 81       	ldd	r30, Y+2	; 0x02
    139e:	fb 81       	ldd	r31, Y+3	; 0x03
    13a0:	00 83       	st	Z, r16
    13a2:	ce 01       	movw	r24, r28
    13a4:	ba df       	rcall	.-140    	; 0x131a <_ZN3LCD6enableEv>
    13a6:	ea 81       	ldd	r30, Y+2	; 0x02
    13a8:	fb 81       	ldd	r31, Y+3	; 0x03
    13aa:	10 82       	st	Z, r1
    13ac:	8c 81       	ldd	r24, Y+4	; 0x04
    13ae:	89 30       	cpi	r24, 0x09	; 9
    13b0:	31 f5       	brne	.+76     	; 0x13fe <_ZN3LCD7commandEh+0xa0>
    13b2:	87 ec       	ldi	r24, 0xC7	; 199
    13b4:	90 e0       	ldi	r25, 0x00	; 0
    13b6:	01 97       	sbiw	r24, 0x01	; 1
    13b8:	f1 f7       	brne	.-4      	; 0x13b6 <_ZN3LCD7commandEh+0x58>
    13ba:	00 c0       	rjmp	.+0      	; 0x13bc <_ZN3LCD7commandEh+0x5e>
    13bc:	00 00       	nop
    13be:	1f c0       	rjmp	.+62     	; 0x13fe <_ZN3LCD7commandEh+0xa0>
    13c0:	19 85       	ldd	r17, Y+9	; 0x09
    13c2:	14 30       	cpi	r17, 0x04	; 4
    13c4:	11 f0       	breq	.+4      	; 0x13ca <_ZN3LCD7commandEh+0x6c>
    13c6:	84 e0       	ldi	r24, 0x04	; 4
    13c8:	01 c0       	rjmp	.+2      	; 0x13cc <_ZN3LCD7commandEh+0x6e>
    13ca:	87 e0       	ldi	r24, 0x07	; 7
    13cc:	89 87       	std	Y+9, r24	; 0x09
    13ce:	ff b6       	in	r15, 0x3f	; 63
    13d0:	f8 94       	cli
    13d2:	ea 81       	ldd	r30, Y+2	; 0x02
    13d4:	fb 81       	ldd	r31, Y+3	; 0x03
    13d6:	e0 82       	st	Z, r14
    13d8:	ce 01       	movw	r24, r28
    13da:	9f df       	rcall	.-194    	; 0x131a <_ZN3LCD6enableEv>
    13dc:	ea 81       	ldd	r30, Y+2	; 0x02
    13de:	fb 81       	ldd	r31, Y+3	; 0x03
    13e0:	00 83       	st	Z, r16
    13e2:	ce 01       	movw	r24, r28
    13e4:	9a df       	rcall	.-204    	; 0x131a <_ZN3LCD6enableEv>
    13e6:	ea 81       	ldd	r30, Y+2	; 0x02
    13e8:	fb 81       	ldd	r31, Y+3	; 0x03
    13ea:	10 82       	st	Z, r1
    13ec:	19 87       	std	Y+9, r17	; 0x09
    13ee:	87 ec       	ldi	r24, 0xC7	; 199
    13f0:	90 e0       	ldi	r25, 0x00	; 0
    13f2:	01 97       	sbiw	r24, 0x01	; 1
    13f4:	f1 f7       	brne	.-4      	; 0x13f2 <_ZN3LCD7commandEh+0x94>
    13f6:	00 c0       	rjmp	.+0      	; 0x13f8 <_ZN3LCD7commandEh+0x9a>
    13f8:	00 00       	nop
    13fa:	ff be       	out	0x3f, r15	; 63
    13fc:	04 c0       	rjmp	.+8      	; 0x1406 <_ZN3LCD7commandEh+0xa8>
    13fe:	1f bf       	out	0x3f, r17	; 63
    1400:	8c 81       	ldd	r24, Y+4	; 0x04
    1402:	89 30       	cpi	r24, 0x09	; 9
    1404:	e9 f2       	breq	.-70     	; 0x13c0 <_ZN3LCD7commandEh+0x62>
    1406:	df 91       	pop	r29
    1408:	cf 91       	pop	r28
    140a:	1f 91       	pop	r17
    140c:	0f 91       	pop	r16
    140e:	ff 90       	pop	r15
    1410:	ef 90       	pop	r14
    1412:	08 95       	ret

00001414 <_ZN3LCD7set_posEhh>:
    1414:	cf 93       	push	r28
    1416:	df 93       	push	r29
    1418:	fc 01       	movw	r30, r24
    141a:	a5 81       	ldd	r26, Z+5	; 0x05
    141c:	b6 81       	ldd	r27, Z+6	; 0x06
    141e:	8c 91       	ld	r24, X
    1420:	68 17       	cp	r22, r24
    1422:	f0 f4       	brcc	.+60     	; 0x1460 <_ZN3LCD7set_posEhh+0x4c>
    1424:	11 96       	adiw	r26, 0x01	; 1
    1426:	8c 91       	ld	r24, X
    1428:	11 97       	sbiw	r26, 0x01	; 1
    142a:	48 17       	cp	r20, r24
    142c:	d8 f4       	brcc	.+54     	; 0x1464 <_ZN3LCD7set_posEhh+0x50>
    142e:	40 87       	std	Z+8, r20	; 0x08
    1430:	67 83       	std	Z+7, r22	; 0x07
    1432:	ed 01       	movw	r28, r26
    1434:	c6 0f       	add	r28, r22
    1436:	d1 1d       	adc	r29, r1
    1438:	8a 81       	ldd	r24, Y+2	; 0x02
    143a:	48 0f       	add	r20, r24
    143c:	84 81       	ldd	r24, Z+4	; 0x04
    143e:	89 30       	cpi	r24, 0x09	; 9
    1440:	39 f4       	brne	.+14     	; 0x1450 <_ZN3LCD7set_posEhh+0x3c>
    1442:	8c 91       	ld	r24, X
    1444:	86 95       	lsr	r24
    1446:	68 17       	cp	r22, r24
    1448:	18 f0       	brcs	.+6      	; 0x1450 <_ZN3LCD7set_posEhh+0x3c>
    144a:	87 e0       	ldi	r24, 0x07	; 7
    144c:	81 87       	std	Z+9, r24	; 0x09
    144e:	02 c0       	rjmp	.+4      	; 0x1454 <_ZN3LCD7set_posEhh+0x40>
    1450:	84 e0       	ldi	r24, 0x04	; 4
    1452:	81 87       	std	Z+9, r24	; 0x09
    1454:	cf 01       	movw	r24, r30
    1456:	64 2f       	mov	r22, r20
    1458:	60 68       	ori	r22, 0x80	; 128
    145a:	81 df       	rcall	.-254    	; 0x135e <_ZN3LCD7commandEh>
    145c:	81 e0       	ldi	r24, 0x01	; 1
    145e:	03 c0       	rjmp	.+6      	; 0x1466 <_ZN3LCD7set_posEhh+0x52>
    1460:	80 e0       	ldi	r24, 0x00	; 0
    1462:	01 c0       	rjmp	.+2      	; 0x1466 <_ZN3LCD7set_posEhh+0x52>
    1464:	80 e0       	ldi	r24, 0x00	; 0
    1466:	df 91       	pop	r29
    1468:	cf 91       	pop	r28
    146a:	08 95       	ret

0000146c <_ZN3LCD14advance_cursorEv>:
    146c:	fc 01       	movw	r30, r24
    146e:	90 85       	ldd	r25, Z+8	; 0x08
    1470:	81 e0       	ldi	r24, 0x01	; 1
    1472:	89 0f       	add	r24, r25
    1474:	80 87       	std	Z+8, r24	; 0x08
    1476:	a5 81       	ldd	r26, Z+5	; 0x05
    1478:	b6 81       	ldd	r27, Z+6	; 0x06
    147a:	11 96       	adiw	r26, 0x01	; 1
    147c:	2c 91       	ld	r18, X
    147e:	11 97       	sbiw	r26, 0x01	; 1
    1480:	82 17       	cp	r24, r18
    1482:	88 f0       	brcs	.+34     	; 0x14a6 <_ZN3LCD14advance_cursorEv+0x3a>
    1484:	81 81       	ldd	r24, Z+1	; 0x01
    1486:	88 23       	and	r24, r24
    1488:	49 f0       	breq	.+18     	; 0x149c <_ZN3LCD14advance_cursorEv+0x30>
    148a:	10 86       	std	Z+8, r1	; 0x08
    148c:	87 81       	ldd	r24, Z+7	; 0x07
    148e:	8f 5f       	subi	r24, 0xFF	; 255
    1490:	87 83       	std	Z+7, r24	; 0x07
    1492:	9c 91       	ld	r25, X
    1494:	89 17       	cp	r24, r25
    1496:	18 f0       	brcs	.+6      	; 0x149e <_ZN3LCD14advance_cursorEv+0x32>
    1498:	17 82       	std	Z+7, r1	; 0x07
    149a:	01 c0       	rjmp	.+2      	; 0x149e <_ZN3LCD14advance_cursorEv+0x32>
    149c:	90 87       	std	Z+8, r25	; 0x08
    149e:	40 85       	ldd	r20, Z+8	; 0x08
    14a0:	67 81       	ldd	r22, Z+7	; 0x07
    14a2:	cf 01       	movw	r24, r30
    14a4:	b7 cf       	rjmp	.-146    	; 0x1414 <_ZN3LCD7set_posEhh>
    14a6:	08 95       	ret

000014a8 <_ZN3LCD4initEh>:
    14a8:	1f 93       	push	r17
    14aa:	cf 93       	push	r28
    14ac:	df 93       	push	r29
    14ae:	ec 01       	movw	r28, r24
    14b0:	16 2f       	mov	r17, r22
    14b2:	2f ef       	ldi	r18, 0xFF	; 255
    14b4:	81 ee       	ldi	r24, 0xE1	; 225
    14b6:	94 e0       	ldi	r25, 0x04	; 4
    14b8:	21 50       	subi	r18, 0x01	; 1
    14ba:	80 40       	sbci	r24, 0x00	; 0
    14bc:	90 40       	sbci	r25, 0x00	; 0
    14be:	e1 f7       	brne	.-8      	; 0x14b8 <_ZN3LCD4initEh+0x10>
    14c0:	00 c0       	rjmp	.+0      	; 0x14c2 <_ZN3LCD4initEh+0x1a>
    14c2:	00 00       	nop
    14c4:	ea 81       	ldd	r30, Y+2	; 0x02
    14c6:	fb 81       	ldd	r31, Y+3	; 0x03
    14c8:	83 e0       	ldi	r24, 0x03	; 3
    14ca:	80 83       	st	Z, r24
    14cc:	ce 01       	movw	r24, r28
    14ce:	25 df       	rcall	.-438    	; 0x131a <_ZN3LCD6enableEv>
    14d0:	8f e1       	ldi	r24, 0x1F	; 31
    14d2:	9e e4       	ldi	r25, 0x4E	; 78
    14d4:	01 97       	sbiw	r24, 0x01	; 1
    14d6:	f1 f7       	brne	.-4      	; 0x14d4 <_ZN3LCD4initEh+0x2c>
    14d8:	00 c0       	rjmp	.+0      	; 0x14da <_ZN3LCD4initEh+0x32>
    14da:	00 00       	nop
    14dc:	ce 01       	movw	r24, r28
    14de:	1d df       	rcall	.-454    	; 0x131a <_ZN3LCD6enableEv>
    14e0:	8f e1       	ldi	r24, 0x1F	; 31
    14e2:	9e e4       	ldi	r25, 0x4E	; 78
    14e4:	01 97       	sbiw	r24, 0x01	; 1
    14e6:	f1 f7       	brne	.-4      	; 0x14e4 <_ZN3LCD4initEh+0x3c>
    14e8:	00 c0       	rjmp	.+0      	; 0x14ea <_ZN3LCD4initEh+0x42>
    14ea:	00 00       	nop
    14ec:	ce 01       	movw	r24, r28
    14ee:	15 df       	rcall	.-470    	; 0x131a <_ZN3LCD6enableEv>
    14f0:	8f e1       	ldi	r24, 0x1F	; 31
    14f2:	9e e4       	ldi	r25, 0x4E	; 78
    14f4:	01 97       	sbiw	r24, 0x01	; 1
    14f6:	f1 f7       	brne	.-4      	; 0x14f4 <_ZN3LCD4initEh+0x4c>
    14f8:	00 c0       	rjmp	.+0      	; 0x14fa <_ZN3LCD4initEh+0x52>
    14fa:	00 00       	nop
    14fc:	ea 81       	ldd	r30, Y+2	; 0x02
    14fe:	fb 81       	ldd	r31, Y+3	; 0x03
    1500:	82 e0       	ldi	r24, 0x02	; 2
    1502:	80 83       	st	Z, r24
    1504:	ce 01       	movw	r24, r28
    1506:	09 df       	rcall	.-494    	; 0x131a <_ZN3LCD6enableEv>
    1508:	8f e1       	ldi	r24, 0x1F	; 31
    150a:	9e e4       	ldi	r25, 0x4E	; 78
    150c:	01 97       	sbiw	r24, 0x01	; 1
    150e:	f1 f7       	brne	.-4      	; 0x150c <_ZN3LCD4initEh+0x64>
    1510:	00 c0       	rjmp	.+0      	; 0x1512 <_ZN3LCD4initEh+0x6a>
    1512:	00 00       	nop
    1514:	61 2f       	mov	r22, r17
    1516:	ce 01       	movw	r24, r28
    1518:	22 df       	rcall	.-444    	; 0x135e <_ZN3LCD7commandEh>
    151a:	ed 81       	ldd	r30, Y+5	; 0x05
    151c:	fe 81       	ldd	r31, Y+6	; 0x06
    151e:	80 81       	ld	r24, Z
    1520:	81 30       	cpi	r24, 0x01	; 1
    1522:	21 f4       	brne	.+8      	; 0x152c <_ZN3LCD4initEh+0x84>
    1524:	60 e2       	ldi	r22, 0x20	; 32
    1526:	ce 01       	movw	r24, r28
    1528:	1a df       	rcall	.-460    	; 0x135e <_ZN3LCD7commandEh>
    152a:	03 c0       	rjmp	.+6      	; 0x1532 <_ZN3LCD4initEh+0x8a>
    152c:	68 e2       	ldi	r22, 0x28	; 40
    152e:	ce 01       	movw	r24, r28
    1530:	16 df       	rcall	.-468    	; 0x135e <_ZN3LCD7commandEh>
    1532:	61 e0       	ldi	r22, 0x01	; 1
    1534:	ce 01       	movw	r24, r28
    1536:	13 df       	rcall	.-474    	; 0x135e <_ZN3LCD7commandEh>
    1538:	8c 81       	ldd	r24, Y+4	; 0x04
    153a:	89 30       	cpi	r24, 0x09	; 9
    153c:	31 f4       	brne	.+12     	; 0x154a <_ZN3LCD4initEh+0xa2>
    153e:	8f e1       	ldi	r24, 0x1F	; 31
    1540:	9e e4       	ldi	r25, 0x4E	; 78
    1542:	01 97       	sbiw	r24, 0x01	; 1
    1544:	f1 f7       	brne	.-4      	; 0x1542 <_ZN3LCD4initEh+0x9a>
    1546:	00 c0       	rjmp	.+0      	; 0x1548 <_ZN3LCD4initEh+0xa0>
    1548:	00 00       	nop
    154a:	66 e0       	ldi	r22, 0x06	; 6
    154c:	ce 01       	movw	r24, r28
    154e:	07 df       	rcall	.-498    	; 0x135e <_ZN3LCD7commandEh>
    1550:	8c 81       	ldd	r24, Y+4	; 0x04
    1552:	89 30       	cpi	r24, 0x09	; 9
    1554:	09 f0       	breq	.+2      	; 0x1558 <_ZN3LCD4initEh+0xb0>
    1556:	3e c0       	rjmp	.+124    	; 0x15d4 <_ZN3LCD4initEh+0x12c>
    1558:	87 e0       	ldi	r24, 0x07	; 7
    155a:	89 87       	std	Y+9, r24	; 0x09
    155c:	ea 81       	ldd	r30, Y+2	; 0x02
    155e:	fb 81       	ldd	r31, Y+3	; 0x03
    1560:	83 e0       	ldi	r24, 0x03	; 3
    1562:	80 83       	st	Z, r24
    1564:	ce 01       	movw	r24, r28
    1566:	d9 de       	rcall	.-590    	; 0x131a <_ZN3LCD6enableEv>
    1568:	8f e1       	ldi	r24, 0x1F	; 31
    156a:	9e e4       	ldi	r25, 0x4E	; 78
    156c:	01 97       	sbiw	r24, 0x01	; 1
    156e:	f1 f7       	brne	.-4      	; 0x156c <_ZN3LCD4initEh+0xc4>
    1570:	00 c0       	rjmp	.+0      	; 0x1572 <_ZN3LCD4initEh+0xca>
    1572:	00 00       	nop
    1574:	ce 01       	movw	r24, r28
    1576:	d1 de       	rcall	.-606    	; 0x131a <_ZN3LCD6enableEv>
    1578:	8f e1       	ldi	r24, 0x1F	; 31
    157a:	9e e4       	ldi	r25, 0x4E	; 78
    157c:	01 97       	sbiw	r24, 0x01	; 1
    157e:	f1 f7       	brne	.-4      	; 0x157c <_ZN3LCD4initEh+0xd4>
    1580:	00 c0       	rjmp	.+0      	; 0x1582 <_ZN3LCD4initEh+0xda>
    1582:	00 00       	nop
    1584:	ce 01       	movw	r24, r28
    1586:	c9 de       	rcall	.-622    	; 0x131a <_ZN3LCD6enableEv>
    1588:	8f e1       	ldi	r24, 0x1F	; 31
    158a:	9e e4       	ldi	r25, 0x4E	; 78
    158c:	01 97       	sbiw	r24, 0x01	; 1
    158e:	f1 f7       	brne	.-4      	; 0x158c <_ZN3LCD4initEh+0xe4>
    1590:	00 c0       	rjmp	.+0      	; 0x1592 <_ZN3LCD4initEh+0xea>
    1592:	00 00       	nop
    1594:	ea 81       	ldd	r30, Y+2	; 0x02
    1596:	fb 81       	ldd	r31, Y+3	; 0x03
    1598:	82 e0       	ldi	r24, 0x02	; 2
    159a:	80 83       	st	Z, r24
    159c:	ce 01       	movw	r24, r28
    159e:	bd de       	rcall	.-646    	; 0x131a <_ZN3LCD6enableEv>
    15a0:	8f e1       	ldi	r24, 0x1F	; 31
    15a2:	9e e4       	ldi	r25, 0x4E	; 78
    15a4:	01 97       	sbiw	r24, 0x01	; 1
    15a6:	f1 f7       	brne	.-4      	; 0x15a4 <_ZN3LCD4initEh+0xfc>
    15a8:	00 c0       	rjmp	.+0      	; 0x15aa <_ZN3LCD4initEh+0x102>
    15aa:	00 00       	nop
    15ac:	61 2f       	mov	r22, r17
    15ae:	ce 01       	movw	r24, r28
    15b0:	d6 de       	rcall	.-596    	; 0x135e <_ZN3LCD7commandEh>
    15b2:	68 e2       	ldi	r22, 0x28	; 40
    15b4:	ce 01       	movw	r24, r28
    15b6:	d3 de       	rcall	.-602    	; 0x135e <_ZN3LCD7commandEh>
    15b8:	61 e0       	ldi	r22, 0x01	; 1
    15ba:	ce 01       	movw	r24, r28
    15bc:	d0 de       	rcall	.-608    	; 0x135e <_ZN3LCD7commandEh>
    15be:	8f e1       	ldi	r24, 0x1F	; 31
    15c0:	9e e4       	ldi	r25, 0x4E	; 78
    15c2:	01 97       	sbiw	r24, 0x01	; 1
    15c4:	f1 f7       	brne	.-4      	; 0x15c2 <_ZN3LCD4initEh+0x11a>
    15c6:	00 c0       	rjmp	.+0      	; 0x15c8 <_ZN3LCD4initEh+0x120>
    15c8:	00 00       	nop
    15ca:	66 e0       	ldi	r22, 0x06	; 6
    15cc:	ce 01       	movw	r24, r28
    15ce:	c7 de       	rcall	.-626    	; 0x135e <_ZN3LCD7commandEh>
    15d0:	84 e0       	ldi	r24, 0x04	; 4
    15d2:	89 87       	std	Y+9, r24	; 0x09
    15d4:	df 91       	pop	r29
    15d6:	cf 91       	pop	r28
    15d8:	1f 91       	pop	r17
    15da:	08 95       	ret

000015dc <_ZN3LCDC1Eh10LCD_Type_th>:
    15dc:	0f 93       	push	r16
    15de:	1f 93       	push	r17
    15e0:	cf 93       	push	r28
    15e2:	df 93       	push	r29
    15e4:	ec 01       	movw	r28, r24
    15e6:	86 2f       	mov	r24, r22
    15e8:	04 2f       	mov	r16, r20
    15ea:	12 2f       	mov	r17, r18
    15ec:	0e 94 f3 15 	call	0x2be6	; 0x2be6 <_Z22port_handle_to_addressh>
    15f0:	9c 01       	movw	r18, r24
    15f2:	2e 5f       	subi	r18, 0xFE	; 254
    15f4:	3f 4f       	sbci	r19, 0xFF	; 255
    15f6:	3b 83       	std	Y+3, r19	; 0x03
    15f8:	2a 83       	std	Y+2, r18	; 0x02
    15fa:	24 e0       	ldi	r18, 0x04	; 4
    15fc:	29 87       	std	Y+9, r18	; 0x09
    15fe:	0c 83       	std	Y+4, r16	; 0x04
    1600:	40 2f       	mov	r20, r16
    1602:	50 e0       	ldi	r21, 0x00	; 0
    1604:	9a 01       	movw	r18, r20
    1606:	22 0f       	add	r18, r18
    1608:	33 1f       	adc	r19, r19
    160a:	42 0f       	add	r20, r18
    160c:	53 1f       	adc	r21, r19
    160e:	44 0f       	add	r20, r20
    1610:	55 1f       	adc	r21, r21
    1612:	42 5c       	subi	r20, 0xC2	; 194
    1614:	5d 4f       	sbci	r21, 0xFD	; 253
    1616:	5e 83       	std	Y+6, r21	; 0x06
    1618:	4d 83       	std	Y+5, r20	; 0x05
    161a:	18 86       	std	Y+8, r1	; 0x08
    161c:	1f 82       	std	Y+7, r1	; 0x07
    161e:	21 2f       	mov	r18, r17
    1620:	22 1f       	adc	r18, r18
    1622:	22 27       	eor	r18, r18
    1624:	22 1f       	adc	r18, r18
    1626:	29 83       	std	Y+1, r18	; 0x01
    1628:	2f ef       	ldi	r18, 0xFF	; 255
    162a:	fc 01       	movw	r30, r24
    162c:	21 83       	std	Z+1, r18	; 0x01
    162e:	61 2f       	mov	r22, r17
    1630:	6f 77       	andi	r22, 0x7F	; 127
    1632:	68 83       	st	Y, r22
    1634:	ce 01       	movw	r24, r28
    1636:	38 df       	rcall	.-400    	; 0x14a8 <_ZN3LCD4initEh>
    1638:	df 91       	pop	r29
    163a:	cf 91       	pop	r28
    163c:	1f 91       	pop	r17
    163e:	0f 91       	pop	r16
    1640:	08 95       	ret

00001642 <_ZN3LCD10write_charEc>:
    1642:	0f 93       	push	r16
    1644:	1f 93       	push	r17
    1646:	cf 93       	push	r28
    1648:	df 93       	push	r29
    164a:	ec 01       	movw	r28, r24
    164c:	16 2f       	mov	r17, r22
    164e:	8c 81       	ldd	r24, Y+4	; 0x04
    1650:	89 30       	cpi	r24, 0x09	; 9
    1652:	11 f0       	breq	.+4      	; 0x1658 <_ZN3LCD10write_charEc+0x16>
    1654:	ce 01       	movw	r24, r28
    1656:	f7 dd       	rcall	.-1042   	; 0x1246 <_ZN3LCD10wait_readyEv>
    1658:	0f b7       	in	r16, 0x3f	; 63
    165a:	f8 94       	cli
    165c:	81 2f       	mov	r24, r17
    165e:	82 95       	swap	r24
    1660:	8f 70       	andi	r24, 0x0F	; 15
    1662:	80 64       	ori	r24, 0x40	; 64
    1664:	ea 81       	ldd	r30, Y+2	; 0x02
    1666:	fb 81       	ldd	r31, Y+3	; 0x03
    1668:	80 83       	st	Z, r24
    166a:	ce 01       	movw	r24, r28
    166c:	56 de       	rcall	.-852    	; 0x131a <_ZN3LCD6enableEv>
    166e:	1f 70       	andi	r17, 0x0F	; 15
    1670:	10 64       	ori	r17, 0x40	; 64
    1672:	ea 81       	ldd	r30, Y+2	; 0x02
    1674:	fb 81       	ldd	r31, Y+3	; 0x03
    1676:	10 83       	st	Z, r17
    1678:	ce 01       	movw	r24, r28
    167a:	4f de       	rcall	.-866    	; 0x131a <_ZN3LCD6enableEv>
    167c:	ea 81       	ldd	r30, Y+2	; 0x02
    167e:	fb 81       	ldd	r31, Y+3	; 0x03
    1680:	10 82       	st	Z, r1
    1682:	8c 81       	ldd	r24, Y+4	; 0x04
    1684:	89 30       	cpi	r24, 0x09	; 9
    1686:	31 f4       	brne	.+12     	; 0x1694 <_ZN3LCD10write_charEc+0x52>
    1688:	87 ec       	ldi	r24, 0xC7	; 199
    168a:	90 e0       	ldi	r25, 0x00	; 0
    168c:	01 97       	sbiw	r24, 0x01	; 1
    168e:	f1 f7       	brne	.-4      	; 0x168c <_ZN3LCD10write_charEc+0x4a>
    1690:	00 c0       	rjmp	.+0      	; 0x1692 <_ZN3LCD10write_charEc+0x50>
    1692:	00 00       	nop
    1694:	0f bf       	out	0x3f, r16	; 63
    1696:	ce 01       	movw	r24, r28
    1698:	e9 de       	rcall	.-558    	; 0x146c <_ZN3LCD14advance_cursorEv>
    169a:	df 91       	pop	r29
    169c:	cf 91       	pop	r28
    169e:	1f 91       	pop	r17
    16a0:	0f 91       	pop	r16
    16a2:	08 95       	ret

000016a4 <_ZN3LCD15write_SRAM_textEPKch>:
    16a4:	ef 92       	push	r14
    16a6:	ff 92       	push	r15
    16a8:	0f 93       	push	r16
    16aa:	1f 93       	push	r17
    16ac:	cf 93       	push	r28
    16ae:	df 93       	push	r29
    16b0:	7c 01       	movw	r14, r24
    16b2:	44 23       	and	r20, r20
    16b4:	11 f0       	breq	.+4      	; 0x16ba <_ZN3LCD15write_SRAM_textEPKch+0x16>
    16b6:	50 e0       	ldi	r21, 0x00	; 0
    16b8:	02 c0       	rjmp	.+4      	; 0x16be <_ZN3LCD15write_SRAM_textEPKch+0x1a>
    16ba:	4f ef       	ldi	r20, 0xFF	; 255
    16bc:	5f ef       	ldi	r21, 0xFF	; 255
    16be:	eb 01       	movw	r28, r22
    16c0:	8b 01       	movw	r16, r22
    16c2:	04 0f       	add	r16, r20
    16c4:	15 1f       	adc	r17, r21
    16c6:	0c 17       	cp	r16, r28
    16c8:	1d 07       	cpc	r17, r29
    16ca:	39 f0       	breq	.+14     	; 0x16da <_ZN3LCD15write_SRAM_textEPKch+0x36>
    16cc:	68 81       	ld	r22, Y
    16ce:	66 23       	and	r22, r22
    16d0:	21 f0       	breq	.+8      	; 0x16da <_ZN3LCD15write_SRAM_textEPKch+0x36>
    16d2:	21 96       	adiw	r28, 0x01	; 1
    16d4:	c7 01       	movw	r24, r14
    16d6:	b5 df       	rcall	.-150    	; 0x1642 <_ZN3LCD10write_charEc>
    16d8:	f6 cf       	rjmp	.-20     	; 0x16c6 <_ZN3LCD15write_SRAM_textEPKch+0x22>
    16da:	df 91       	pop	r29
    16dc:	cf 91       	pop	r28
    16de:	1f 91       	pop	r17
    16e0:	0f 91       	pop	r16
    16e2:	ff 90       	pop	r15
    16e4:	ef 90       	pop	r14
    16e6:	08 95       	ret

000016e8 <_ZN3LCD16write_FLASH_textEPKch>:
    16e8:	ef 92       	push	r14
    16ea:	ff 92       	push	r15
    16ec:	0f 93       	push	r16
    16ee:	1f 93       	push	r17
    16f0:	cf 93       	push	r28
    16f2:	df 93       	push	r29
    16f4:	7c 01       	movw	r14, r24
    16f6:	44 23       	and	r20, r20
    16f8:	19 f0       	breq	.+6      	; 0x1700 <_ZN3LCD16write_FLASH_textEPKch+0x18>
    16fa:	04 2f       	mov	r16, r20
    16fc:	10 e0       	ldi	r17, 0x00	; 0
    16fe:	02 c0       	rjmp	.+4      	; 0x1704 <_ZN3LCD16write_FLASH_textEPKch+0x1c>
    1700:	0f ef       	ldi	r16, 0xFF	; 255
    1702:	1f ef       	ldi	r17, 0xFF	; 255
    1704:	06 0f       	add	r16, r22
    1706:	17 1f       	adc	r17, r23
    1708:	fb 01       	movw	r30, r22
    170a:	e0 17       	cp	r30, r16
    170c:	f1 07       	cpc	r31, r17
    170e:	49 f0       	breq	.+18     	; 0x1722 <_ZN3LCD16write_FLASH_textEPKch+0x3a>
    1710:	64 91       	lpm	r22, Z
    1712:	ef 01       	movw	r28, r30
    1714:	21 96       	adiw	r28, 0x01	; 1
    1716:	66 23       	and	r22, r22
    1718:	21 f0       	breq	.+8      	; 0x1722 <_ZN3LCD16write_FLASH_textEPKch+0x3a>
    171a:	c7 01       	movw	r24, r14
    171c:	92 df       	rcall	.-220    	; 0x1642 <_ZN3LCD10write_charEc>
    171e:	fe 01       	movw	r30, r28
    1720:	f4 cf       	rjmp	.-24     	; 0x170a <_ZN3LCD16write_FLASH_textEPKch+0x22>
    1722:	df 91       	pop	r29
    1724:	cf 91       	pop	r28
    1726:	1f 91       	pop	r17
    1728:	0f 91       	pop	r16
    172a:	ff 90       	pop	r15
    172c:	ef 90       	pop	r14
    172e:	08 95       	ret

00001730 <_ZN3LCD4itoaEPcihc>:
    1730:	8f 92       	push	r8
    1732:	9f 92       	push	r9
    1734:	af 92       	push	r10
    1736:	bf 92       	push	r11
    1738:	cf 92       	push	r12
    173a:	df 92       	push	r13
    173c:	ef 92       	push	r14
    173e:	ff 92       	push	r15
    1740:	0f 93       	push	r16
    1742:	1f 93       	push	r17
    1744:	cf 93       	push	r28
    1746:	df 93       	push	r29
    1748:	6c 01       	movw	r12, r24
    174a:	fb 01       	movw	r30, r22
    174c:	89 2b       	or	r24, r25
    174e:	31 f4       	brne	.+12     	; 0x175c <_ZN3LCD4itoaEPcihc+0x2c>
    1750:	0f 2e       	mov	r0, r31
    1752:	f2 e8       	ldi	r31, 0x82	; 130
    1754:	cf 2e       	mov	r12, r31
    1756:	f3 e0       	ldi	r31, 0x03	; 3
    1758:	df 2e       	mov	r13, r31
    175a:	f0 2d       	mov	r31, r0
    175c:	ff 23       	and	r31, r31
    175e:	3c f4       	brge	.+14     	; 0x176e <_ZN3LCD4itoaEPcihc+0x3e>
    1760:	8d e2       	ldi	r24, 0x2D	; 45
    1762:	d6 01       	movw	r26, r12
    1764:	8c 93       	st	X, r24
    1766:	f1 95       	neg	r31
    1768:	e1 95       	neg	r30
    176a:	f1 09       	sbc	r31, r1
    176c:	37 c0       	rjmp	.+110    	; 0x17dc <_ZN3LCD4itoaEPcihc+0xac>
    176e:	d6 01       	movw	r26, r12
    1770:	2c 93       	st	X, r18
    1772:	34 c0       	rjmp	.+104    	; 0x17dc <_ZN3LCD4itoaEPcihc+0xac>
    1774:	cf 01       	movw	r24, r30
    1776:	b8 01       	movw	r22, r16
    1778:	0e 94 50 16 	call	0x2ca0	; 0x2ca0 <__divmodhi4>
    177c:	7c 01       	movw	r14, r24
    177e:	8e 17       	cp	r24, r30
    1780:	9f 07       	cpc	r25, r31
    1782:	91 f4       	brne	.+36     	; 0x17a8 <_ZN3LCD4itoaEPcihc+0x78>
    1784:	35 30       	cpi	r19, 0x05	; 5
    1786:	21 f4       	brne	.+8      	; 0x1790 <_ZN3LCD4itoaEPcihc+0x60>
    1788:	80 e3       	ldi	r24, 0x30	; 48
    178a:	f6 01       	movw	r30, r12
    178c:	85 83       	std	Z+5, r24	; 0x05
    178e:	1c c0       	rjmp	.+56     	; 0x17c8 <_ZN3LCD4itoaEPcihc+0x98>
    1790:	88 81       	ld	r24, Y
    1792:	28 13       	cpse	r18, r24
    1794:	02 c0       	rjmp	.+4      	; 0x179a <_ZN3LCD4itoaEPcihc+0x6a>
    1796:	29 83       	std	Y+1, r18	; 0x01
    1798:	0d c0       	rjmp	.+26     	; 0x17b4 <_ZN3LCD4itoaEPcihc+0x84>
    179a:	8d 32       	cpi	r24, 0x2D	; 45
    179c:	19 f4       	brne	.+6      	; 0x17a4 <_ZN3LCD4itoaEPcihc+0x74>
    179e:	28 83       	st	Y, r18
    17a0:	89 82       	std	Y+1, r8	; 0x01
    17a2:	08 c0       	rjmp	.+16     	; 0x17b4 <_ZN3LCD4itoaEPcihc+0x84>
    17a4:	99 82       	std	Y+1, r9	; 0x01
    17a6:	06 c0       	rjmp	.+12     	; 0x17b4 <_ZN3LCD4itoaEPcihc+0x84>
    17a8:	cf 01       	movw	r24, r30
    17aa:	b8 01       	movw	r22, r16
    17ac:	0e 94 50 16 	call	0x2ca0	; 0x2ca0 <__divmodhi4>
    17b0:	60 5d       	subi	r22, 0xD0	; 208
    17b2:	69 83       	std	Y+1, r22	; 0x01
    17b4:	c8 01       	movw	r24, r16
    17b6:	b5 01       	movw	r22, r10
    17b8:	0e 94 50 16 	call	0x2ca0	; 0x2ca0 <__divmodhi4>
    17bc:	8b 01       	movw	r16, r22
    17be:	3f 5f       	subi	r19, 0xFF	; 255
    17c0:	21 96       	adiw	r28, 0x01	; 1
    17c2:	f7 01       	movw	r30, r14
    17c4:	36 30       	cpi	r19, 0x06	; 6
    17c6:	b1 f6       	brne	.-84     	; 0x1774 <_ZN3LCD4itoaEPcihc+0x44>
    17c8:	d6 01       	movw	r26, r12
    17ca:	16 96       	adiw	r26, 0x06	; 6
    17cc:	1c 92       	st	X, r1
    17ce:	86 e0       	ldi	r24, 0x06	; 6
    17d0:	90 e0       	ldi	r25, 0x00	; 0
    17d2:	84 1b       	sub	r24, r20
    17d4:	91 09       	sbc	r25, r1
    17d6:	8c 0d       	add	r24, r12
    17d8:	9d 1d       	adc	r25, r13
    17da:	12 c0       	rjmp	.+36     	; 0x1800 <_ZN3LCD4itoaEPcihc+0xd0>
    17dc:	e6 01       	movw	r28, r12
    17de:	31 e0       	ldi	r19, 0x01	; 1
    17e0:	00 e1       	ldi	r16, 0x10	; 16
    17e2:	17 e2       	ldi	r17, 0x27	; 39
    17e4:	0f 2e       	mov	r0, r31
    17e6:	f0 e3       	ldi	r31, 0x30	; 48
    17e8:	9f 2e       	mov	r9, r31
    17ea:	f0 2d       	mov	r31, r0
    17ec:	0f 2e       	mov	r0, r31
    17ee:	fd e2       	ldi	r31, 0x2D	; 45
    17f0:	8f 2e       	mov	r8, r31
    17f2:	f0 2d       	mov	r31, r0
    17f4:	0f 2e       	mov	r0, r31
    17f6:	fa e0       	ldi	r31, 0x0A	; 10
    17f8:	af 2e       	mov	r10, r31
    17fa:	b1 2c       	mov	r11, r1
    17fc:	f0 2d       	mov	r31, r0
    17fe:	ba cf       	rjmp	.-140    	; 0x1774 <_ZN3LCD4itoaEPcihc+0x44>
    1800:	df 91       	pop	r29
    1802:	cf 91       	pop	r28
    1804:	1f 91       	pop	r17
    1806:	0f 91       	pop	r16
    1808:	ff 90       	pop	r15
    180a:	ef 90       	pop	r14
    180c:	df 90       	pop	r13
    180e:	cf 90       	pop	r12
    1810:	bf 90       	pop	r11
    1812:	af 90       	pop	r10
    1814:	9f 90       	pop	r9
    1816:	8f 90       	pop	r8
    1818:	08 95       	ret

0000181a <_ZN3LCD12write_numberEihc>:
    181a:	cf 93       	push	r28
    181c:	df 93       	push	r29
    181e:	ec 01       	movw	r28, r24
    1820:	80 e0       	ldi	r24, 0x00	; 0
    1822:	90 e0       	ldi	r25, 0x00	; 0
    1824:	85 df       	rcall	.-246    	; 0x1730 <_ZN3LCD4itoaEPcihc>
    1826:	40 e0       	ldi	r20, 0x00	; 0
    1828:	bc 01       	movw	r22, r24
    182a:	ce 01       	movw	r24, r28
    182c:	3b df       	rcall	.-394    	; 0x16a4 <_ZN3LCD15write_SRAM_textEPKch>
    182e:	df 91       	pop	r29
    1830:	cf 91       	pop	r28
    1832:	08 95       	ret

00001834 <_Z5yieldv>:
    1834:	80 91 8b 03 	lds	r24, 0x038B	; 0x80038b <_ZL10sched_type>
    1838:	81 30       	cpi	r24, 0x01	; 1
    183a:	61 f4       	brne	.+24     	; 0x1854 <_Z5yieldv+0x20>
    183c:	78 94       	sei
    183e:	83 b7       	in	r24, 0x33	; 51
    1840:	81 7f       	andi	r24, 0xF1	; 241
    1842:	83 bf       	out	0x33, r24	; 51
    1844:	83 b7       	in	r24, 0x33	; 51
    1846:	81 60       	ori	r24, 0x01	; 1
    1848:	83 bf       	out	0x33, r24	; 51
    184a:	88 95       	sleep
    184c:	83 b7       	in	r24, 0x33	; 51
    184e:	8e 7f       	andi	r24, 0xFE	; 254
    1850:	83 bf       	out	0x33, r24	; 51
    1852:	08 95       	ret
    1854:	8c e8       	ldi	r24, 0x8C	; 140
    1856:	93 e0       	ldi	r25, 0x03	; 3
    1858:	0e 94 62 15 	call	0x2ac4	; 0x2ac4 <_ZN7OSTimer13force_timeoutEv>
    185c:	90 91 0a 02 	lds	r25, 0x020A	; 0x80020a <_ZL14active_task_id>
    1860:	2b e2       	ldi	r18, 0x2B	; 43
    1862:	33 e0       	ldi	r19, 0x03	; 3
    1864:	92 9f       	mul	r25, r18
    1866:	f0 01       	movw	r30, r0
    1868:	93 9f       	mul	r25, r19
    186a:	f0 0d       	add	r31, r0
    186c:	11 24       	eor	r1, r1
    186e:	e3 56       	subi	r30, 0x63	; 99
    1870:	fc 4f       	sbci	r31, 0xFC	; 252
    1872:	44 81       	ldd	r20, Z+4	; 0x04
    1874:	55 81       	ldd	r21, Z+5	; 0x05
    1876:	66 81       	ldd	r22, Z+6	; 0x06
    1878:	77 81       	ldd	r23, Z+7	; 0x07
    187a:	48 0f       	add	r20, r24
    187c:	51 1d       	adc	r21, r1
    187e:	61 1d       	adc	r22, r1
    1880:	71 1d       	adc	r23, r1
    1882:	44 83       	std	Z+4, r20	; 0x04
    1884:	55 83       	std	Z+5, r21	; 0x05
    1886:	66 83       	std	Z+6, r22	; 0x06
    1888:	77 83       	std	Z+7, r23	; 0x07
    188a:	08 95       	ret

0000188c <_Z11sem_waitingv>:
    188c:	90 91 8a 03 	lds	r25, 0x038A	; 0x80038a <_ZL17sem_waiting_count>
    1890:	99 23       	and	r25, r25
    1892:	a9 f0       	breq	.+42     	; 0x18be <_Z11sem_waitingv+0x32>
    1894:	20 91 89 03 	lds	r18, 0x0389	; 0x800389 <_ZL18sem_waiting_oldest>
    1898:	e2 2f       	mov	r30, r18
    189a:	f0 e0       	ldi	r31, 0x00	; 0
    189c:	ee 5f       	subi	r30, 0xFE	; 254
    189e:	fd 4f       	sbci	r31, 0xFD	; 253
    18a0:	80 81       	ld	r24, Z
    18a2:	3f ef       	ldi	r19, 0xFF	; 255
    18a4:	30 83       	st	Z, r19
    18a6:	91 50       	subi	r25, 0x01	; 1
    18a8:	90 93 8a 03 	sts	0x038A, r25	; 0x80038a <_ZL17sem_waiting_count>
    18ac:	2f 5f       	subi	r18, 0xFF	; 255
    18ae:	28 30       	cpi	r18, 0x08	; 8
    18b0:	18 f4       	brcc	.+6      	; 0x18b8 <_Z11sem_waitingv+0x2c>
    18b2:	20 93 89 03 	sts	0x0389, r18	; 0x800389 <_ZL18sem_waiting_oldest>
    18b6:	08 95       	ret
    18b8:	10 92 89 03 	sts	0x0389, r1	; 0x800389 <_ZL18sem_waiting_oldest>
    18bc:	08 95       	ret
    18be:	8f ef       	ldi	r24, 0xFF	; 255
    18c0:	08 95       	ret

000018c2 <__vector_23>:
    18c2:	ff 93       	push	r31
    18c4:	ef 93       	push	r30
    18c6:	df 93       	push	r29
    18c8:	cf 93       	push	r28
    18ca:	bf 93       	push	r27
    18cc:	af 93       	push	r26
    18ce:	9f 93       	push	r25
    18d0:	8f 93       	push	r24
    18d2:	7f 93       	push	r23
    18d4:	6f 93       	push	r22
    18d6:	5f 93       	push	r21
    18d8:	4f 93       	push	r20
    18da:	3f 93       	push	r19
    18dc:	2f 93       	push	r18
    18de:	1f 93       	push	r17
    18e0:	0f 93       	push	r16
    18e2:	ff 92       	push	r15
    18e4:	ef 92       	push	r14
    18e6:	df 92       	push	r13
    18e8:	cf 92       	push	r12
    18ea:	bf 92       	push	r11
    18ec:	af 92       	push	r10
    18ee:	9f 92       	push	r9
    18f0:	8f 92       	push	r8
    18f2:	7f 92       	push	r7
    18f4:	6f 92       	push	r6
    18f6:	5f 92       	push	r5
    18f8:	4f 92       	push	r4
    18fa:	3f 92       	push	r3
    18fc:	2f 92       	push	r2
    18fe:	1f 92       	push	r1
    1900:	0f 92       	push	r0
    1902:	c0 91 0a 02 	lds	r28, 0x020A	; 0x80020a <_ZL14active_task_id>
    1906:	2c 2f       	mov	r18, r28
    1908:	30 e0       	ldi	r19, 0x00	; 0
    190a:	8f b7       	in	r24, 0x3f	; 63
    190c:	4b e2       	ldi	r20, 0x2B	; 43
    190e:	53 e0       	ldi	r21, 0x03	; 3
    1910:	24 9f       	mul	r18, r20
    1912:	f0 01       	movw	r30, r0
    1914:	25 9f       	mul	r18, r21
    1916:	f0 0d       	add	r31, r0
    1918:	34 9f       	mul	r19, r20
    191a:	f0 0d       	add	r31, r0
    191c:	11 24       	eor	r1, r1
    191e:	e3 56       	subi	r30, 0x63	; 99
    1920:	fc 4f       	sbci	r31, 0xFC	; 252
    1922:	80 87       	std	Z+8, r24	; 0x08
    1924:	8d b7       	in	r24, 0x3d	; 61
    1926:	9e b7       	in	r25, 0x3e	; 62
    1928:	92 87       	std	Z+10, r25	; 0x0a
    192a:	81 87       	std	Z+9, r24	; 0x09
    192c:	84 81       	ldd	r24, Z+4	; 0x04
    192e:	95 81       	ldd	r25, Z+5	; 0x05
    1930:	a6 81       	ldd	r26, Z+6	; 0x06
    1932:	b7 81       	ldd	r27, Z+7	; 0x07
    1934:	8f 51       	subi	r24, 0x1F	; 31
    1936:	9f 4f       	sbci	r25, 0xFF	; 255
    1938:	af 4f       	sbci	r26, 0xFF	; 255
    193a:	bf 4f       	sbci	r27, 0xFF	; 255
    193c:	84 83       	std	Z+4, r24	; 0x04
    193e:	95 83       	std	Z+5, r25	; 0x05
    1940:	a6 83       	std	Z+6, r26	; 0x06
    1942:	b7 83       	std	Z+7, r27	; 0x07
    1944:	81 81       	ldd	r24, Z+1	; 0x01
    1946:	81 11       	cpse	r24, r1
    1948:	0d c0       	rjmp	.+26     	; 0x1964 <__vector_23+0xa2>
    194a:	8b e2       	ldi	r24, 0x2B	; 43
    194c:	93 e0       	ldi	r25, 0x03	; 3
    194e:	28 9f       	mul	r18, r24
    1950:	f0 01       	movw	r30, r0
    1952:	29 9f       	mul	r18, r25
    1954:	f0 0d       	add	r31, r0
    1956:	38 9f       	mul	r19, r24
    1958:	f0 0d       	add	r31, r0
    195a:	11 24       	eor	r1, r1
    195c:	e3 56       	subi	r30, 0x63	; 99
    195e:	fc 4f       	sbci	r31, 0xFC	; 252
    1960:	81 e0       	ldi	r24, 0x01	; 1
    1962:	81 83       	std	Z+1, r24	; 0x01
    1964:	93 df       	rcall	.-218    	; 0x188c <_Z11sem_waitingv>
    1966:	8f 3f       	cpi	r24, 0xFF	; 255
    1968:	19 f0       	breq	.+6      	; 0x1970 <__vector_23+0xae>
    196a:	80 93 0a 02 	sts	0x020A, r24	; 0x80020a <_ZL14active_task_id>
    196e:	41 c0       	rjmp	.+130    	; 0x19f2 <__vector_23+0x130>
    1970:	8c 2f       	mov	r24, r28
    1972:	4b e2       	ldi	r20, 0x2B	; 43
    1974:	53 e0       	ldi	r21, 0x03	; 3
    1976:	8f 5f       	subi	r24, 0xFF	; 255
    1978:	88 30       	cpi	r24, 0x08	; 8
    197a:	08 f0       	brcs	.+2      	; 0x197e <__vector_23+0xbc>
    197c:	81 e0       	ldi	r24, 0x01	; 1
    197e:	28 2f       	mov	r18, r24
    1980:	30 e0       	ldi	r19, 0x00	; 0
    1982:	24 9f       	mul	r18, r20
    1984:	f0 01       	movw	r30, r0
    1986:	25 9f       	mul	r18, r21
    1988:	f0 0d       	add	r31, r0
    198a:	34 9f       	mul	r19, r20
    198c:	f0 0d       	add	r31, r0
    198e:	11 24       	eor	r1, r1
    1990:	e3 56       	subi	r30, 0x63	; 99
    1992:	fc 4f       	sbci	r31, 0xFC	; 252
    1994:	91 81       	ldd	r25, Z+1	; 0x01
    1996:	91 30       	cpi	r25, 0x01	; 1
    1998:	41 f5       	brne	.+80     	; 0x19ea <__vector_23+0x128>
    199a:	24 9f       	mul	r18, r20
    199c:	f0 01       	movw	r30, r0
    199e:	25 9f       	mul	r18, r21
    19a0:	f0 0d       	add	r31, r0
    19a2:	34 9f       	mul	r19, r20
    19a4:	f0 0d       	add	r31, r0
    19a6:	11 24       	eor	r1, r1
    19a8:	e3 56       	subi	r30, 0x63	; 99
    19aa:	fc 4f       	sbci	r31, 0xFC	; 252
    19ac:	93 81       	ldd	r25, Z+3	; 0x03
    19ae:	99 23       	and	r25, r25
    19b0:	61 f0       	breq	.+24     	; 0x19ca <__vector_23+0x108>
    19b2:	24 9f       	mul	r18, r20
    19b4:	f0 01       	movw	r30, r0
    19b6:	25 9f       	mul	r18, r21
    19b8:	f0 0d       	add	r31, r0
    19ba:	34 9f       	mul	r19, r20
    19bc:	f0 0d       	add	r31, r0
    19be:	11 24       	eor	r1, r1
    19c0:	e3 56       	subi	r30, 0x63	; 99
    19c2:	fc 4f       	sbci	r31, 0xFC	; 252
    19c4:	91 50       	subi	r25, 0x01	; 1
    19c6:	93 83       	std	Z+3, r25	; 0x03
    19c8:	d6 cf       	rjmp	.-84     	; 0x1976 <__vector_23+0xb4>
    19ca:	4b e2       	ldi	r20, 0x2B	; 43
    19cc:	53 e0       	ldi	r21, 0x03	; 3
    19ce:	24 9f       	mul	r18, r20
    19d0:	f0 01       	movw	r30, r0
    19d2:	25 9f       	mul	r18, r21
    19d4:	f0 0d       	add	r31, r0
    19d6:	34 9f       	mul	r19, r20
    19d8:	f0 0d       	add	r31, r0
    19da:	11 24       	eor	r1, r1
    19dc:	e3 56       	subi	r30, 0x63	; 99
    19de:	fc 4f       	sbci	r31, 0xFC	; 252
    19e0:	92 81       	ldd	r25, Z+2	; 0x02
    19e2:	93 83       	std	Z+3, r25	; 0x03
    19e4:	80 93 0a 02 	sts	0x020A, r24	; 0x80020a <_ZL14active_task_id>
    19e8:	04 c0       	rjmp	.+8      	; 0x19f2 <__vector_23+0x130>
    19ea:	8c 13       	cpse	r24, r28
    19ec:	c4 cf       	rjmp	.-120    	; 0x1976 <__vector_23+0xb4>
    19ee:	10 92 0a 02 	sts	0x020A, r1	; 0x80020a <_ZL14active_task_id>
    19f2:	20 91 0a 02 	lds	r18, 0x020A	; 0x80020a <_ZL14active_task_id>
    19f6:	8b e2       	ldi	r24, 0x2B	; 43
    19f8:	93 e0       	ldi	r25, 0x03	; 3
    19fa:	28 9f       	mul	r18, r24
    19fc:	f0 01       	movw	r30, r0
    19fe:	29 9f       	mul	r18, r25
    1a00:	f0 0d       	add	r31, r0
    1a02:	11 24       	eor	r1, r1
    1a04:	e3 56       	subi	r30, 0x63	; 99
    1a06:	fc 4f       	sbci	r31, 0xFC	; 252
    1a08:	11 82       	std	Z+1, r1	; 0x01
    1a0a:	9f b7       	in	r25, 0x3f	; 63
    return 1;
}

static __inline__ uint8_t __iCliRetVal(void)
{
    cli();
    1a0c:	f8 94       	cli
    1a0e:	40 91 8e 03 	lds	r20, 0x038E	; 0x80038e <_ZL8OS_timer+0x2>
    1a12:	50 91 8f 03 	lds	r21, 0x038F	; 0x80038f <_ZL8OS_timer+0x3>
    1a16:	20 91 c4 02 	lds	r18, 0x02C4	; 0x8002c4 <tc_vect>
    1a1a:	30 91 c5 02 	lds	r19, 0x02C5	; 0x8002c5 <tc_vect+0x1>
    1a1e:	42 17       	cp	r20, r18
    1a20:	53 07       	cpc	r21, r19
    1a22:	51 f4       	brne	.+20     	; 0x1a38 <__vector_23+0x176>
    1a24:	ec e8       	ldi	r30, 0x8C	; 140
    1a26:	f3 e0       	ldi	r31, 0x03	; 3
    1a28:	a4 81       	ldd	r26, Z+4	; 0x04
    1a2a:	b5 81       	ldd	r27, Z+5	; 0x05
    1a2c:	8c 91       	ld	r24, X
    1a2e:	85 60       	ori	r24, 0x05	; 5
    1a30:	8c 93       	st	X, r24
    1a32:	80 89       	ldd	r24, Z+16	; 0x10
    1a34:	86 bd       	out	0x26, r24	; 38
    1a36:	0a c0       	rjmp	.+20     	; 0x1a4c <__vector_23+0x18a>
    1a38:	ec e8       	ldi	r30, 0x8C	; 140
    1a3a:	f3 e0       	ldi	r31, 0x03	; 3
    1a3c:	a4 81       	ldd	r26, Z+4	; 0x04
    1a3e:	b5 81       	ldd	r27, Z+5	; 0x05
    1a40:	8c 91       	ld	r24, X
    1a42:	87 60       	ori	r24, 0x07	; 7
    1a44:	8c 93       	st	X, r24
    1a46:	80 89       	ldd	r24, Z+16	; 0x10
    1a48:	80 93 b2 00 	sts	0x00B2, r24	; 0x8000b2 <__TEXT_REGION_LENGTH__+0x7c00b2>
    (void)__s;
}

static __inline__ void __iRestore(const  uint8_t *__s)
{
    SREG = *__s;
    1a4c:	9f bf       	out	0x3f, r25	; 63
    1a4e:	20 91 0a 02 	lds	r18, 0x020A	; 0x80020a <_ZL14active_task_id>
    1a52:	8b e2       	ldi	r24, 0x2B	; 43
    1a54:	93 e0       	ldi	r25, 0x03	; 3
    1a56:	28 9f       	mul	r18, r24
    1a58:	f0 01       	movw	r30, r0
    1a5a:	29 9f       	mul	r18, r25
    1a5c:	f0 0d       	add	r31, r0
    1a5e:	11 24       	eor	r1, r1
    1a60:	e3 56       	subi	r30, 0x63	; 99
    1a62:	fc 4f       	sbci	r31, 0xFC	; 252
    1a64:	20 85       	ldd	r18, Z+8	; 0x08
    1a66:	2f bf       	out	0x3f, r18	; 63
    1a68:	20 91 0a 02 	lds	r18, 0x020A	; 0x80020a <_ZL14active_task_id>
    1a6c:	28 9f       	mul	r18, r24
    1a6e:	f0 01       	movw	r30, r0
    1a70:	29 9f       	mul	r18, r25
    1a72:	f0 0d       	add	r31, r0
    1a74:	11 24       	eor	r1, r1
    1a76:	e3 56       	subi	r30, 0x63	; 99
    1a78:	fc 4f       	sbci	r31, 0xFC	; 252
    1a7a:	81 85       	ldd	r24, Z+9	; 0x09
    1a7c:	92 85       	ldd	r25, Z+10	; 0x0a
    1a7e:	9e bf       	out	0x3e, r25	; 62
    1a80:	8d bf       	out	0x3d, r24	; 61
    1a82:	0f 90       	pop	r0
    1a84:	1f 90       	pop	r1
    1a86:	2f 90       	pop	r2
    1a88:	3f 90       	pop	r3
    1a8a:	4f 90       	pop	r4
    1a8c:	5f 90       	pop	r5
    1a8e:	6f 90       	pop	r6
    1a90:	7f 90       	pop	r7
    1a92:	8f 90       	pop	r8
    1a94:	9f 90       	pop	r9
    1a96:	af 90       	pop	r10
    1a98:	bf 90       	pop	r11
    1a9a:	cf 90       	pop	r12
    1a9c:	df 90       	pop	r13
    1a9e:	ef 90       	pop	r14
    1aa0:	ff 90       	pop	r15
    1aa2:	0f 91       	pop	r16
    1aa4:	1f 91       	pop	r17
    1aa6:	2f 91       	pop	r18
    1aa8:	3f 91       	pop	r19
    1aaa:	4f 91       	pop	r20
    1aac:	5f 91       	pop	r21
    1aae:	6f 91       	pop	r22
    1ab0:	7f 91       	pop	r23
    1ab2:	8f 91       	pop	r24
    1ab4:	9f 91       	pop	r25
    1ab6:	af 91       	pop	r26
    1ab8:	bf 91       	pop	r27
    1aba:	cf 91       	pop	r28
    1abc:	df 91       	pop	r29
    1abe:	ef 91       	pop	r30
    1ac0:	ff 91       	pop	r31
    1ac2:	18 95       	reti

00001ac4 <_GLOBAL__sub_I__Z11task_insertPFvvE8Priority>:
    1ac4:	60 e0       	ldi	r22, 0x00	; 0
    1ac6:	8c e8       	ldi	r24, 0x8C	; 140
    1ac8:	93 e0       	ldi	r25, 0x03	; 3
    1aca:	d8 c7       	rjmp	.+4016   	; 0x2a7c <_ZN7OSTimerC1Eh>
    1acc:	08 95       	ret

00001ace <_ZN11QuadEncoder2onEh>:
    1ace:	dc 01       	movw	r26, r24
    1ad0:	12 96       	adiw	r26, 0x02	; 2
    1ad2:	ed 91       	ld	r30, X+
    1ad4:	fc 91       	ld	r31, X
    1ad6:	13 97       	sbiw	r26, 0x03	; 3
    1ad8:	82 81       	ldd	r24, Z+2	; 0x02
    1ada:	60 95       	com	r22
    1adc:	68 23       	and	r22, r24
    1ade:	62 83       	std	Z+2, r22	; 0x02
    1ae0:	08 95       	ret

00001ae2 <_ZN11QuadEncoder3offEh>:
    1ae2:	dc 01       	movw	r26, r24
    1ae4:	12 96       	adiw	r26, 0x02	; 2
    1ae6:	ed 91       	ld	r30, X+
    1ae8:	fc 91       	ld	r31, X
    1aea:	13 97       	sbiw	r26, 0x03	; 3
    1aec:	82 81       	ldd	r24, Z+2	; 0x02
    1aee:	68 2b       	or	r22, r24
    1af0:	62 83       	std	Z+2, r22	; 0x02
    1af2:	08 95       	ret

00001af4 <_ZN11QuadEncoder6toggleEh>:
    1af4:	dc 01       	movw	r26, r24
    1af6:	12 96       	adiw	r26, 0x02	; 2
    1af8:	ed 91       	ld	r30, X+
    1afa:	fc 91       	ld	r31, X
    1afc:	13 97       	sbiw	r26, 0x03	; 3
    1afe:	82 81       	ldd	r24, Z+2	; 0x02
    1b00:	68 27       	eor	r22, r24
    1b02:	62 83       	std	Z+2, r22	; 0x02
    1b04:	08 95       	ret

00001b06 <_ZN11QuadEncoder6notifyEv>:
    1b06:	0f 93       	push	r16
    1b08:	1f 93       	push	r17
    1b0a:	cf 93       	push	r28
    1b0c:	df 93       	push	r29
    1b0e:	fc 01       	movw	r30, r24
    1b10:	23 85       	ldd	r18, Z+11	; 0x0b
    1b12:	22 23       	and	r18, r18
    1b14:	09 f4       	brne	.+2      	; 0x1b18 <_ZN11QuadEncoder6notifyEv+0x12>
    1b16:	6b c0       	rjmp	.+214    	; 0x1bee <_ZN11QuadEncoder6notifyEv+0xe8>
    1b18:	ec 01       	movw	r28, r24
    1b1a:	04 89       	ldd	r16, Z+20	; 0x14
    1b1c:	15 89       	ldd	r17, Z+21	; 0x15
    1b1e:	02 80       	ldd	r0, Z+2	; 0x02
    1b20:	f3 81       	ldd	r31, Z+3	; 0x03
    1b22:	e0 2d       	mov	r30, r0
    1b24:	80 81       	ld	r24, Z
    1b26:	83 fd       	sbrc	r24, 3
    1b28:	0f c0       	rjmp	.+30     	; 0x1b48 <_ZN11QuadEncoder6notifyEv+0x42>
    1b2a:	81 e0       	ldi	r24, 0x01	; 1
    1b2c:	8c 87       	std	Y+12, r24	; 0x0c
    1b2e:	8c 89       	ldd	r24, Y+20	; 0x14
    1b30:	9d 89       	ldd	r25, Y+21	; 0x15
    1b32:	9b 8b       	std	Y+19, r25	; 0x13
    1b34:	8a 8b       	std	Y+18, r24	; 0x12
    1b36:	e8 81       	ld	r30, Y
    1b38:	f9 81       	ldd	r31, Y+1	; 0x01
    1b3a:	02 80       	ldd	r0, Z+2	; 0x02
    1b3c:	f3 81       	ldd	r31, Z+3	; 0x03
    1b3e:	e0 2d       	mov	r30, r0
    1b40:	60 e1       	ldi	r22, 0x10	; 16
    1b42:	ce 01       	movw	r24, r28
    1b44:	19 95       	eicall
    1b46:	53 c0       	rjmp	.+166    	; 0x1bee <_ZN11QuadEncoder6notifyEv+0xe8>
    1b48:	80 81       	ld	r24, Z
    1b4a:	83 70       	andi	r24, 0x03	; 3
    1b4c:	8e 8b       	std	Y+22, r24	; 0x16
    1b4e:	2c 89       	ldd	r18, Y+20	; 0x14
    1b50:	3d 89       	ldd	r19, Y+21	; 0x15
    1b52:	ef 89       	ldd	r30, Y+23	; 0x17
    1b54:	f0 e0       	ldi	r31, 0x00	; 0
    1b56:	ee 0f       	add	r30, r30
    1b58:	ff 1f       	adc	r31, r31
    1b5a:	ee 0f       	add	r30, r30
    1b5c:	ff 1f       	adc	r31, r31
    1b5e:	e5 5f       	subi	r30, 0xF5	; 245
    1b60:	fd 4f       	sbci	r31, 0xFD	; 253
    1b62:	e8 0f       	add	r30, r24
    1b64:	f1 1d       	adc	r31, r1
    1b66:	90 81       	ld	r25, Z
    1b68:	29 0f       	add	r18, r25
    1b6a:	31 1d       	adc	r19, r1
    1b6c:	97 fd       	sbrc	r25, 7
    1b6e:	3a 95       	dec	r19
    1b70:	3d 8b       	std	Y+21, r19	; 0x15
    1b72:	2c 8b       	std	Y+20, r18	; 0x14
    1b74:	8f 8b       	std	Y+23, r24	; 0x17
    1b76:	2c 89       	ldd	r18, Y+20	; 0x14
    1b78:	3d 89       	ldd	r19, Y+21	; 0x15
    1b7a:	8e 85       	ldd	r24, Y+14	; 0x0e
    1b7c:	9f 85       	ldd	r25, Y+15	; 0x0f
    1b7e:	82 17       	cp	r24, r18
    1b80:	93 07       	cpc	r25, r19
    1b82:	5c f0       	brlt	.+22     	; 0x1b9a <_ZN11QuadEncoder6notifyEv+0x94>
    1b84:	9d 8b       	std	Y+21, r25	; 0x15
    1b86:	8c 8b       	std	Y+20, r24	; 0x14
    1b88:	e8 81       	ld	r30, Y
    1b8a:	f9 81       	ldd	r31, Y+1	; 0x01
    1b8c:	02 80       	ldd	r0, Z+2	; 0x02
    1b8e:	f3 81       	ldd	r31, Z+3	; 0x03
    1b90:	e0 2d       	mov	r30, r0
    1b92:	60 e2       	ldi	r22, 0x20	; 32
    1b94:	ce 01       	movw	r24, r28
    1b96:	19 95       	eicall
    1b98:	1a c0       	rjmp	.+52     	; 0x1bce <_ZN11QuadEncoder6notifyEv+0xc8>
    1b9a:	2c 89       	ldd	r18, Y+20	; 0x14
    1b9c:	3d 89       	ldd	r19, Y+21	; 0x15
    1b9e:	88 89       	ldd	r24, Y+16	; 0x10
    1ba0:	99 89       	ldd	r25, Y+17	; 0x11
    1ba2:	28 17       	cp	r18, r24
    1ba4:	39 07       	cpc	r19, r25
    1ba6:	5c f0       	brlt	.+22     	; 0x1bbe <_ZN11QuadEncoder6notifyEv+0xb8>
    1ba8:	9d 8b       	std	Y+21, r25	; 0x15
    1baa:	8c 8b       	std	Y+20, r24	; 0x14
    1bac:	e8 81       	ld	r30, Y
    1bae:	f9 81       	ldd	r31, Y+1	; 0x01
    1bb0:	02 80       	ldd	r0, Z+2	; 0x02
    1bb2:	f3 81       	ldd	r31, Z+3	; 0x03
    1bb4:	e0 2d       	mov	r30, r0
    1bb6:	64 e0       	ldi	r22, 0x04	; 4
    1bb8:	ce 01       	movw	r24, r28
    1bba:	19 95       	eicall
    1bbc:	08 c0       	rjmp	.+16     	; 0x1bce <_ZN11QuadEncoder6notifyEv+0xc8>
    1bbe:	e8 81       	ld	r30, Y
    1bc0:	f9 81       	ldd	r31, Y+1	; 0x01
    1bc2:	04 80       	ldd	r0, Z+4	; 0x04
    1bc4:	f5 81       	ldd	r31, Z+5	; 0x05
    1bc6:	e0 2d       	mov	r30, r0
    1bc8:	64 e2       	ldi	r22, 0x24	; 36
    1bca:	ce 01       	movw	r24, r28
    1bcc:	19 95       	eicall
    1bce:	8c 89       	ldd	r24, Y+20	; 0x14
    1bd0:	9d 89       	ldd	r25, Y+21	; 0x15
    1bd2:	08 17       	cp	r16, r24
    1bd4:	19 07       	cpc	r17, r25
    1bd6:	59 f0       	breq	.+22     	; 0x1bee <_ZN11QuadEncoder6notifyEv+0xe8>
    1bd8:	e8 81       	ld	r30, Y
    1bda:	f9 81       	ldd	r31, Y+1	; 0x01
    1bdc:	04 80       	ldd	r0, Z+4	; 0x04
    1bde:	f5 81       	ldd	r31, Z+5	; 0x05
    1be0:	e0 2d       	mov	r30, r0
    1be2:	60 e1       	ldi	r22, 0x10	; 16
    1be4:	ce 01       	movw	r24, r28
    1be6:	19 95       	eicall
    1be8:	81 e0       	ldi	r24, 0x01	; 1
    1bea:	8d 87       	std	Y+13, r24	; 0x0d
    1bec:	1c 86       	std	Y+12, r1	; 0x0c
    1bee:	df 91       	pop	r29
    1bf0:	cf 91       	pop	r28
    1bf2:	1f 91       	pop	r17
    1bf4:	0f 91       	pop	r16
    1bf6:	08 95       	ret

00001bf8 <_ZN11QuadEncoderC1Eh>:
    1bf8:	0f 93       	push	r16
    1bfa:	1f 93       	push	r17
    1bfc:	cf 93       	push	r28
    1bfe:	df 93       	push	r29
    1c00:	ec 01       	movw	r28, r24
    1c02:	00 e0       	ldi	r16, 0x00	; 0
    1c04:	10 e0       	ldi	r17, 0x00	; 0
    1c06:	20 e0       	ldi	r18, 0x00	; 0
    1c08:	44 e3       	ldi	r20, 0x34	; 52
    1c0a:	d3 da       	rcall	.-2650   	; 0x11b2 <_ZN12DigiPortIRPTC1EhhhPFvvE>
    1c0c:	8e e7       	ldi	r24, 0x7E	; 126
    1c0e:	92 e0       	ldi	r25, 0x02	; 2
    1c10:	99 83       	std	Y+1, r25	; 0x01
    1c12:	88 83       	st	Y, r24
    1c14:	ea 81       	ldd	r30, Y+2	; 0x02
    1c16:	fb 81       	ldd	r31, Y+3	; 0x03
    1c18:	8b ec       	ldi	r24, 0xCB	; 203
    1c1a:	82 83       	std	Z+2, r24	; 0x02
    1c1c:	ea 81       	ldd	r30, Y+2	; 0x02
    1c1e:	fb 81       	ldd	r31, Y+3	; 0x03
    1c20:	82 81       	ldd	r24, Z+2	; 0x02
    1c22:	84 63       	ori	r24, 0x34	; 52
    1c24:	82 83       	std	Z+2, r24	; 0x02
    1c26:	1f 86       	std	Y+15, r1	; 0x0f
    1c28:	1e 86       	std	Y+14, r1	; 0x0e
    1c2a:	8f e0       	ldi	r24, 0x0F	; 15
    1c2c:	97 e2       	ldi	r25, 0x27	; 39
    1c2e:	99 8b       	std	Y+17, r25	; 0x11
    1c30:	88 8b       	std	Y+16, r24	; 0x10
    1c32:	87 e8       	ldi	r24, 0x87	; 135
    1c34:	93 e1       	ldi	r25, 0x13	; 19
    1c36:	9d 8b       	std	Y+21, r25	; 0x15
    1c38:	8c 8b       	std	Y+20, r24	; 0x14
    1c3a:	9b 8b       	std	Y+19, r25	; 0x13
    1c3c:	8a 8b       	std	Y+18, r24	; 0x12
    1c3e:	1e 8a       	std	Y+22, r1	; 0x16
    1c40:	ea 81       	ldd	r30, Y+2	; 0x02
    1c42:	fb 81       	ldd	r31, Y+3	; 0x03
    1c44:	80 81       	ld	r24, Z
    1c46:	83 70       	andi	r24, 0x03	; 3
    1c48:	8f 8b       	std	Y+23, r24	; 0x17
    1c4a:	1c 86       	std	Y+12, r1	; 0x0c
    1c4c:	1d 86       	std	Y+13, r1	; 0x0d
    1c4e:	1b 86       	std	Y+11, r1	; 0x0b
    1c50:	df 91       	pop	r29
    1c52:	cf 91       	pop	r28
    1c54:	1f 91       	pop	r17
    1c56:	0f 91       	pop	r16
    1c58:	08 95       	ret

00001c5a <_ZN11QuadEncoder5startEiii>:
    1c5a:	0f 93       	push	r16
    1c5c:	1f 93       	push	r17
    1c5e:	cf 93       	push	r28
    1c60:	df 93       	push	r29
    1c62:	ec 01       	movw	r28, r24
    1c64:	89 01       	movw	r16, r18
    1c66:	64 17       	cp	r22, r20
    1c68:	75 07       	cpc	r23, r21
    1c6a:	24 f4       	brge	.+8      	; 0x1c74 <_ZN11QuadEncoder5startEiii+0x1a>
    1c6c:	7f 87       	std	Y+15, r23	; 0x0f
    1c6e:	6e 87       	std	Y+14, r22	; 0x0e
    1c70:	59 8b       	std	Y+17, r21	; 0x11
    1c72:	48 8b       	std	Y+16, r20	; 0x10
    1c74:	8e 85       	ldd	r24, Y+14	; 0x0e
    1c76:	9f 85       	ldd	r25, Y+15	; 0x0f
    1c78:	08 17       	cp	r16, r24
    1c7a:	19 07       	cpc	r17, r25
    1c7c:	44 f0       	brlt	.+16     	; 0x1c8e <_ZN11QuadEncoder5startEiii+0x34>
    1c7e:	28 89       	ldd	r18, Y+16	; 0x10
    1c80:	39 89       	ldd	r19, Y+17	; 0x11
    1c82:	20 17       	cp	r18, r16
    1c84:	31 07       	cpc	r19, r17
    1c86:	1c f0       	brlt	.+6      	; 0x1c8e <_ZN11QuadEncoder5startEiii+0x34>
    1c88:	1d 8b       	std	Y+21, r17	; 0x15
    1c8a:	0c 8b       	std	Y+20, r16	; 0x14
    1c8c:	0e c0       	rjmp	.+28     	; 0x1caa <_ZN11QuadEncoder5startEiii+0x50>
    1c8e:	48 89       	ldd	r20, Y+16	; 0x10
    1c90:	59 89       	ldd	r21, Y+17	; 0x11
    1c92:	48 1b       	sub	r20, r24
    1c94:	59 0b       	sbc	r21, r25
    1c96:	9a 01       	movw	r18, r20
    1c98:	12 f4       	brpl	.+4      	; 0x1c9e <_ZN11QuadEncoder5startEiii+0x44>
    1c9a:	2f 5f       	subi	r18, 0xFF	; 255
    1c9c:	3f 4f       	sbci	r19, 0xFF	; 255
    1c9e:	35 95       	asr	r19
    1ca0:	27 95       	ror	r18
    1ca2:	82 0f       	add	r24, r18
    1ca4:	93 1f       	adc	r25, r19
    1ca6:	9d 8b       	std	Y+21, r25	; 0x15
    1ca8:	8c 8b       	std	Y+20, r24	; 0x14
    1caa:	1b 8b       	std	Y+19, r17	; 0x13
    1cac:	0a 8b       	std	Y+18, r16	; 0x12
    1cae:	e8 81       	ld	r30, Y
    1cb0:	f9 81       	ldd	r31, Y+1	; 0x01
    1cb2:	04 80       	ldd	r0, Z+4	; 0x04
    1cb4:	f5 81       	ldd	r31, Z+5	; 0x05
    1cb6:	e0 2d       	mov	r30, r0
    1cb8:	64 e3       	ldi	r22, 0x34	; 52
    1cba:	ce 01       	movw	r24, r28
    1cbc:	19 95       	eicall
    1cbe:	8e 85       	ldd	r24, Y+14	; 0x0e
    1cc0:	9f 85       	ldd	r25, Y+15	; 0x0f
    1cc2:	08 17       	cp	r16, r24
    1cc4:	19 07       	cpc	r17, r25
    1cc6:	49 f4       	brne	.+18     	; 0x1cda <_ZN11QuadEncoder5startEiii+0x80>
    1cc8:	e8 81       	ld	r30, Y
    1cca:	f9 81       	ldd	r31, Y+1	; 0x01
    1ccc:	02 80       	ldd	r0, Z+2	; 0x02
    1cce:	f3 81       	ldd	r31, Z+3	; 0x03
    1cd0:	e0 2d       	mov	r30, r0
    1cd2:	60 e2       	ldi	r22, 0x20	; 32
    1cd4:	ce 01       	movw	r24, r28
    1cd6:	19 95       	eicall
    1cd8:	0d c0       	rjmp	.+26     	; 0x1cf4 <_ZN11QuadEncoder5startEiii+0x9a>
    1cda:	88 89       	ldd	r24, Y+16	; 0x10
    1cdc:	99 89       	ldd	r25, Y+17	; 0x11
    1cde:	08 17       	cp	r16, r24
    1ce0:	19 07       	cpc	r17, r25
    1ce2:	41 f4       	brne	.+16     	; 0x1cf4 <_ZN11QuadEncoder5startEiii+0x9a>
    1ce4:	e8 81       	ld	r30, Y
    1ce6:	f9 81       	ldd	r31, Y+1	; 0x01
    1ce8:	02 80       	ldd	r0, Z+2	; 0x02
    1cea:	f3 81       	ldd	r31, Z+3	; 0x03
    1cec:	e0 2d       	mov	r30, r0
    1cee:	64 e0       	ldi	r22, 0x04	; 4
    1cf0:	ce 01       	movw	r24, r28
    1cf2:	19 95       	eicall
    1cf4:	1c 86       	std	Y+12, r1	; 0x0c
    1cf6:	1d 86       	std	Y+13, r1	; 0x0d
    1cf8:	81 e0       	ldi	r24, 0x01	; 1
    1cfa:	8b 87       	std	Y+11, r24	; 0x0b
    1cfc:	df 91       	pop	r29
    1cfe:	cf 91       	pop	r28
    1d00:	1f 91       	pop	r17
    1d02:	0f 91       	pop	r16
    1d04:	08 95       	ret

00001d06 <_ZN6Timer88notify_AEv>:
    __asm__ volatile ("" ::: "memory");
    1d06:	cf 93       	push	r28
    1d08:	df 93       	push	r29
    1d0a:	ec 01       	movw	r28, r24
    1d0c:	e8 85       	ldd	r30, Y+8	; 0x08
    1d0e:	f9 85       	ldd	r31, Y+9	; 0x09
    1d10:	30 97       	sbiw	r30, 0x00	; 0
    1d12:	09 f0       	breq	.+2      	; 0x1d16 <_ZN6Timer88notify_AEv+0x10>
    1d14:	19 95       	eicall
    1d16:	8a 85       	ldd	r24, Y+10	; 0x0a
    1d18:	9b 85       	ldd	r25, Y+11	; 0x0b
    1d1a:	89 2b       	or	r24, r25
    1d1c:	39 f4       	brne	.+14     	; 0x1d2c <_ZN6Timer88notify_AEv+0x26>
    1d1e:	e8 81       	ld	r30, Y
    1d20:	f9 81       	ldd	r31, Y+1	; 0x01
    1d22:	01 90       	ld	r0, Z+
    1d24:	f0 81       	ld	r31, Z
    1d26:	e0 2d       	mov	r30, r0
    1d28:	ce 01       	movw	r24, r28
    1d2a:	19 95       	eicall
    1d2c:	df 91       	pop	r29
    1d2e:	cf 91       	pop	r28
    1d30:	08 95       	ret

00001d32 <_ZN6Timer88notify_BEv>:
    1d32:	cf 93       	push	r28
    1d34:	df 93       	push	r29
    1d36:	ec 01       	movw	r28, r24
    1d38:	ea 85       	ldd	r30, Y+10	; 0x0a
    1d3a:	fb 85       	ldd	r31, Y+11	; 0x0b
    1d3c:	30 97       	sbiw	r30, 0x00	; 0
    1d3e:	09 f0       	breq	.+2      	; 0x1d42 <_ZN6Timer88notify_BEv+0x10>
    1d40:	19 95       	eicall
    1d42:	8e 85       	ldd	r24, Y+14	; 0x0e
    1d44:	9f 85       	ldd	r25, Y+15	; 0x0f
    1d46:	89 2b       	or	r24, r25
    1d48:	39 f4       	brne	.+14     	; 0x1d58 <_ZN6Timer88notify_BEv+0x26>
    1d4a:	e8 81       	ld	r30, Y
    1d4c:	f9 81       	ldd	r31, Y+1	; 0x01
    1d4e:	01 90       	ld	r0, Z+
    1d50:	f0 81       	ld	r31, Z
    1d52:	e0 2d       	mov	r30, r0
    1d54:	ce 01       	movw	r24, r28
    1d56:	19 95       	eicall
    1d58:	df 91       	pop	r29
    1d5a:	cf 91       	pop	r28
    1d5c:	08 95       	ret

00001d5e <_ZN6Timer88notify_CEv>:
    1d5e:	08 95       	ret

00001d60 <_ZN6Timer88notify_OEv>:
    1d60:	cf 93       	push	r28
    1d62:	df 93       	push	r29
    1d64:	ec 01       	movw	r28, r24
    1d66:	ee 85       	ldd	r30, Y+14	; 0x0e
    1d68:	ff 85       	ldd	r31, Y+15	; 0x0f
    1d6a:	30 97       	sbiw	r30, 0x00	; 0
    1d6c:	09 f0       	breq	.+2      	; 0x1d70 <_ZN6Timer88notify_OEv+0x10>
    1d6e:	19 95       	eicall
    1d70:	e8 81       	ld	r30, Y
    1d72:	f9 81       	ldd	r31, Y+1	; 0x01
    1d74:	01 90       	ld	r0, Z+
    1d76:	f0 81       	ld	r31, Z
    1d78:	e0 2d       	mov	r30, r0
    1d7a:	ce 01       	movw	r24, r28
    1d7c:	19 95       	eicall
    1d7e:	df 91       	pop	r29
    1d80:	cf 91       	pop	r28
    1d82:	08 95       	ret

00001d84 <_ZN7OSTimer5resetEv>:
    1d84:	dc 01       	movw	r26, r24
    1d86:	2f b7       	in	r18, 0x3f	; 63
    1d88:	f8 94       	cli
    1d8a:	12 96       	adiw	r26, 0x02	; 2
    1d8c:	4d 91       	ld	r20, X+
    1d8e:	5c 91       	ld	r21, X
    1d90:	13 97       	sbiw	r26, 0x03	; 3
    1d92:	80 91 c4 02 	lds	r24, 0x02C4	; 0x8002c4 <tc_vect>
    1d96:	90 91 c5 02 	lds	r25, 0x02C5	; 0x8002c5 <tc_vect+0x1>
    1d9a:	48 17       	cp	r20, r24
    1d9c:	59 07       	cpc	r21, r25
    1d9e:	59 f4       	brne	.+22     	; 0x1db6 <_ZN7OSTimer5resetEv+0x32>
    1da0:	14 96       	adiw	r26, 0x04	; 4
    1da2:	ed 91       	ld	r30, X+
    1da4:	fc 91       	ld	r31, X
    1da6:	15 97       	sbiw	r26, 0x05	; 5
    1da8:	80 81       	ld	r24, Z
    1daa:	85 60       	ori	r24, 0x05	; 5
    1dac:	80 83       	st	Z, r24
    1dae:	50 96       	adiw	r26, 0x10	; 16
    1db0:	8c 91       	ld	r24, X
    1db2:	86 bd       	out	0x26, r24	; 38
    1db4:	0b c0       	rjmp	.+22     	; 0x1dcc <_ZN7OSTimer5resetEv+0x48>
    1db6:	14 96       	adiw	r26, 0x04	; 4
    1db8:	ed 91       	ld	r30, X+
    1dba:	fc 91       	ld	r31, X
    1dbc:	15 97       	sbiw	r26, 0x05	; 5
    1dbe:	90 81       	ld	r25, Z
    1dc0:	97 60       	ori	r25, 0x07	; 7
    1dc2:	90 83       	st	Z, r25
    1dc4:	50 96       	adiw	r26, 0x10	; 16
    1dc6:	8c 91       	ld	r24, X
    1dc8:	80 93 b2 00 	sts	0x00B2, r24	; 0x8000b2 <__TEXT_REGION_LENGTH__+0x7c00b2>
    1dcc:	2f bf       	out	0x3f, r18	; 63
    1dce:	08 95       	ret

00001dd0 <_ZN7Timer168notify_AEv>:
    1dd0:	cf 93       	push	r28
    1dd2:	df 93       	push	r29
    1dd4:	ec 01       	movw	r28, r24
    1dd6:	e8 85       	ldd	r30, Y+8	; 0x08
    1dd8:	f9 85       	ldd	r31, Y+9	; 0x09
    1dda:	30 97       	sbiw	r30, 0x00	; 0
    1ddc:	09 f0       	breq	.+2      	; 0x1de0 <_ZN7Timer168notify_AEv+0x10>
    1dde:	19 95       	eicall
    1de0:	8a 85       	ldd	r24, Y+10	; 0x0a
    1de2:	9b 85       	ldd	r25, Y+11	; 0x0b
    1de4:	89 2b       	or	r24, r25
    1de6:	39 f4       	brne	.+14     	; 0x1df6 <_ZN7Timer168notify_AEv+0x26>
    1de8:	e8 81       	ld	r30, Y
    1dea:	f9 81       	ldd	r31, Y+1	; 0x01
    1dec:	01 90       	ld	r0, Z+
    1dee:	f0 81       	ld	r31, Z
    1df0:	e0 2d       	mov	r30, r0
    1df2:	ce 01       	movw	r24, r28
    1df4:	19 95       	eicall
    1df6:	df 91       	pop	r29
    1df8:	cf 91       	pop	r28
    1dfa:	08 95       	ret

00001dfc <_ZN7Timer168notify_BEv>:
    1dfc:	cf 93       	push	r28
    1dfe:	df 93       	push	r29
    1e00:	ec 01       	movw	r28, r24
    1e02:	ea 85       	ldd	r30, Y+10	; 0x0a
    1e04:	fb 85       	ldd	r31, Y+11	; 0x0b
    1e06:	30 97       	sbiw	r30, 0x00	; 0
    1e08:	09 f0       	breq	.+2      	; 0x1e0c <_ZN7Timer168notify_BEv+0x10>
    1e0a:	19 95       	eicall
    1e0c:	8c 85       	ldd	r24, Y+12	; 0x0c
    1e0e:	9d 85       	ldd	r25, Y+13	; 0x0d
    1e10:	89 2b       	or	r24, r25
    1e12:	39 f4       	brne	.+14     	; 0x1e22 <_ZN7Timer168notify_BEv+0x26>
    1e14:	e8 81       	ld	r30, Y
    1e16:	f9 81       	ldd	r31, Y+1	; 0x01
    1e18:	01 90       	ld	r0, Z+
    1e1a:	f0 81       	ld	r31, Z
    1e1c:	e0 2d       	mov	r30, r0
    1e1e:	ce 01       	movw	r24, r28
    1e20:	19 95       	eicall
    1e22:	df 91       	pop	r29
    1e24:	cf 91       	pop	r28
    1e26:	08 95       	ret

00001e28 <_ZN7Timer168notify_CEv>:
    1e28:	cf 93       	push	r28
    1e2a:	df 93       	push	r29
    1e2c:	ec 01       	movw	r28, r24
    1e2e:	ec 85       	ldd	r30, Y+12	; 0x0c
    1e30:	fd 85       	ldd	r31, Y+13	; 0x0d
    1e32:	30 97       	sbiw	r30, 0x00	; 0
    1e34:	09 f0       	breq	.+2      	; 0x1e38 <_ZN7Timer168notify_CEv+0x10>
    1e36:	19 95       	eicall
    1e38:	8e 85       	ldd	r24, Y+14	; 0x0e
    1e3a:	9f 85       	ldd	r25, Y+15	; 0x0f
    1e3c:	89 2b       	or	r24, r25
    1e3e:	39 f4       	brne	.+14     	; 0x1e4e <_ZN7Timer168notify_CEv+0x26>
    1e40:	e8 81       	ld	r30, Y
    1e42:	f9 81       	ldd	r31, Y+1	; 0x01
    1e44:	01 90       	ld	r0, Z+
    1e46:	f0 81       	ld	r31, Z
    1e48:	e0 2d       	mov	r30, r0
    1e4a:	ce 01       	movw	r24, r28
    1e4c:	19 95       	eicall
    1e4e:	df 91       	pop	r29
    1e50:	cf 91       	pop	r28
    1e52:	08 95       	ret

00001e54 <_ZN7Timer168notify_OEv>:
    1e54:	cf 93       	push	r28
    1e56:	df 93       	push	r29
    1e58:	ec 01       	movw	r28, r24
    1e5a:	ee 85       	ldd	r30, Y+14	; 0x0e
    1e5c:	ff 85       	ldd	r31, Y+15	; 0x0f
    1e5e:	30 97       	sbiw	r30, 0x00	; 0
    1e60:	09 f0       	breq	.+2      	; 0x1e64 <_ZN7Timer168notify_OEv+0x10>
    1e62:	19 95       	eicall
    1e64:	e8 81       	ld	r30, Y
    1e66:	f9 81       	ldd	r31, Y+1	; 0x01
    1e68:	01 90       	ld	r0, Z+
    1e6a:	f0 81       	ld	r31, Z
    1e6c:	e0 2d       	mov	r30, r0
    1e6e:	ce 01       	movw	r24, r28
    1e70:	19 95       	eicall
    1e72:	df 91       	pop	r29
    1e74:	cf 91       	pop	r28
    1e76:	08 95       	ret

00001e78 <__cxa_pure_virtual>:
    1e78:	ff cf       	rjmp	.-2      	; 0x1e78 <__cxa_pure_virtual>

00001e7a <__vector_21>:
    1e7a:	1f 92       	push	r1
    1e7c:	0f 92       	push	r0
    1e7e:	0f b6       	in	r0, 0x3f	; 63
    1e80:	0f 92       	push	r0
    1e82:	11 24       	eor	r1, r1
    1e84:	0b b6       	in	r0, 0x3b	; 59
    1e86:	0f 92       	push	r0
    1e88:	2f 93       	push	r18
    1e8a:	3f 93       	push	r19
    1e8c:	4f 93       	push	r20
    1e8e:	5f 93       	push	r21
    1e90:	6f 93       	push	r22
    1e92:	7f 93       	push	r23
    1e94:	8f 93       	push	r24
    1e96:	9f 93       	push	r25
    1e98:	af 93       	push	r26
    1e9a:	bf 93       	push	r27
    1e9c:	ef 93       	push	r30
    1e9e:	ff 93       	push	r31
    1ea0:	80 91 f5 1c 	lds	r24, 0x1CF5	; 0x801cf5 <timer_obj>
    1ea4:	90 91 f6 1c 	lds	r25, 0x1CF6	; 0x801cf6 <timer_obj+0x1>
    1ea8:	00 97       	sbiw	r24, 0x00	; 0
    1eaa:	39 f0       	breq	.+14     	; 0x1eba <__vector_21+0x40>
    1eac:	dc 01       	movw	r26, r24
    1eae:	ed 91       	ld	r30, X+
    1eb0:	fc 91       	ld	r31, X
    1eb2:	02 80       	ldd	r0, Z+2	; 0x02
    1eb4:	f3 81       	ldd	r31, Z+3	; 0x03
    1eb6:	e0 2d       	mov	r30, r0
    1eb8:	19 95       	eicall
    1eba:	ff 91       	pop	r31
    1ebc:	ef 91       	pop	r30
    1ebe:	bf 91       	pop	r27
    1ec0:	af 91       	pop	r26
    1ec2:	9f 91       	pop	r25
    1ec4:	8f 91       	pop	r24
    1ec6:	7f 91       	pop	r23
    1ec8:	6f 91       	pop	r22
    1eca:	5f 91       	pop	r21
    1ecc:	4f 91       	pop	r20
    1ece:	3f 91       	pop	r19
    1ed0:	2f 91       	pop	r18
    1ed2:	0f 90       	pop	r0
    1ed4:	0b be       	out	0x3b, r0	; 59
    1ed6:	0f 90       	pop	r0
    1ed8:	0f be       	out	0x3f, r0	; 63
    1eda:	0f 90       	pop	r0
    1edc:	1f 90       	pop	r1
    1ede:	18 95       	reti

00001ee0 <__vector_22>:
    1ee0:	1f 92       	push	r1
    1ee2:	0f 92       	push	r0
    1ee4:	0f b6       	in	r0, 0x3f	; 63
    1ee6:	0f 92       	push	r0
    1ee8:	11 24       	eor	r1, r1
    1eea:	0b b6       	in	r0, 0x3b	; 59
    1eec:	0f 92       	push	r0
    1eee:	2f 93       	push	r18
    1ef0:	3f 93       	push	r19
    1ef2:	4f 93       	push	r20
    1ef4:	5f 93       	push	r21
    1ef6:	6f 93       	push	r22
    1ef8:	7f 93       	push	r23
    1efa:	8f 93       	push	r24
    1efc:	9f 93       	push	r25
    1efe:	af 93       	push	r26
    1f00:	bf 93       	push	r27
    1f02:	ef 93       	push	r30
    1f04:	ff 93       	push	r31
    1f06:	80 91 f5 1c 	lds	r24, 0x1CF5	; 0x801cf5 <timer_obj>
    1f0a:	90 91 f6 1c 	lds	r25, 0x1CF6	; 0x801cf6 <timer_obj+0x1>
    1f0e:	00 97       	sbiw	r24, 0x00	; 0
    1f10:	39 f0       	breq	.+14     	; 0x1f20 <__vector_22+0x40>
    1f12:	dc 01       	movw	r26, r24
    1f14:	ed 91       	ld	r30, X+
    1f16:	fc 91       	ld	r31, X
    1f18:	04 80       	ldd	r0, Z+4	; 0x04
    1f1a:	f5 81       	ldd	r31, Z+5	; 0x05
    1f1c:	e0 2d       	mov	r30, r0
    1f1e:	19 95       	eicall
    1f20:	ff 91       	pop	r31
    1f22:	ef 91       	pop	r30
    1f24:	bf 91       	pop	r27
    1f26:	af 91       	pop	r26
    1f28:	9f 91       	pop	r25
    1f2a:	8f 91       	pop	r24
    1f2c:	7f 91       	pop	r23
    1f2e:	6f 91       	pop	r22
    1f30:	5f 91       	pop	r21
    1f32:	4f 91       	pop	r20
    1f34:	3f 91       	pop	r19
    1f36:	2f 91       	pop	r18
    1f38:	0f 90       	pop	r0
    1f3a:	0b be       	out	0x3b, r0	; 59
    1f3c:	0f 90       	pop	r0
    1f3e:	0f be       	out	0x3f, r0	; 63
    1f40:	0f 90       	pop	r0
    1f42:	1f 90       	pop	r1
    1f44:	18 95       	reti

00001f46 <__vector_13>:
    1f46:	1f 92       	push	r1
    1f48:	0f 92       	push	r0
    1f4a:	0f b6       	in	r0, 0x3f	; 63
    1f4c:	0f 92       	push	r0
    1f4e:	11 24       	eor	r1, r1
    1f50:	0b b6       	in	r0, 0x3b	; 59
    1f52:	0f 92       	push	r0
    1f54:	2f 93       	push	r18
    1f56:	3f 93       	push	r19
    1f58:	4f 93       	push	r20
    1f5a:	5f 93       	push	r21
    1f5c:	6f 93       	push	r22
    1f5e:	7f 93       	push	r23
    1f60:	8f 93       	push	r24
    1f62:	9f 93       	push	r25
    1f64:	af 93       	push	r26
    1f66:	bf 93       	push	r27
    1f68:	ef 93       	push	r30
    1f6a:	ff 93       	push	r31
    1f6c:	80 91 f9 1c 	lds	r24, 0x1CF9	; 0x801cf9 <timer_obj+0x4>
    1f70:	90 91 fa 1c 	lds	r25, 0x1CFA	; 0x801cfa <timer_obj+0x5>
    1f74:	00 97       	sbiw	r24, 0x00	; 0
    1f76:	39 f0       	breq	.+14     	; 0x1f86 <__vector_13+0x40>
    1f78:	dc 01       	movw	r26, r24
    1f7a:	ed 91       	ld	r30, X+
    1f7c:	fc 91       	ld	r31, X
    1f7e:	02 80       	ldd	r0, Z+2	; 0x02
    1f80:	f3 81       	ldd	r31, Z+3	; 0x03
    1f82:	e0 2d       	mov	r30, r0
    1f84:	19 95       	eicall
    1f86:	ff 91       	pop	r31
    1f88:	ef 91       	pop	r30
    1f8a:	bf 91       	pop	r27
    1f8c:	af 91       	pop	r26
    1f8e:	9f 91       	pop	r25
    1f90:	8f 91       	pop	r24
    1f92:	7f 91       	pop	r23
    1f94:	6f 91       	pop	r22
    1f96:	5f 91       	pop	r21
    1f98:	4f 91       	pop	r20
    1f9a:	3f 91       	pop	r19
    1f9c:	2f 91       	pop	r18
    1f9e:	0f 90       	pop	r0
    1fa0:	0b be       	out	0x3b, r0	; 59
    1fa2:	0f 90       	pop	r0
    1fa4:	0f be       	out	0x3f, r0	; 63
    1fa6:	0f 90       	pop	r0
    1fa8:	1f 90       	pop	r1
    1faa:	18 95       	reti

00001fac <__vector_14>:
    1fac:	1f 92       	push	r1
    1fae:	0f 92       	push	r0
    1fb0:	0f b6       	in	r0, 0x3f	; 63
    1fb2:	0f 92       	push	r0
    1fb4:	11 24       	eor	r1, r1
    1fb6:	0b b6       	in	r0, 0x3b	; 59
    1fb8:	0f 92       	push	r0
    1fba:	2f 93       	push	r18
    1fbc:	3f 93       	push	r19
    1fbe:	4f 93       	push	r20
    1fc0:	5f 93       	push	r21
    1fc2:	6f 93       	push	r22
    1fc4:	7f 93       	push	r23
    1fc6:	8f 93       	push	r24
    1fc8:	9f 93       	push	r25
    1fca:	af 93       	push	r26
    1fcc:	bf 93       	push	r27
    1fce:	ef 93       	push	r30
    1fd0:	ff 93       	push	r31
    1fd2:	80 91 f9 1c 	lds	r24, 0x1CF9	; 0x801cf9 <timer_obj+0x4>
    1fd6:	90 91 fa 1c 	lds	r25, 0x1CFA	; 0x801cfa <timer_obj+0x5>
    1fda:	00 97       	sbiw	r24, 0x00	; 0
    1fdc:	39 f0       	breq	.+14     	; 0x1fec <__vector_14+0x40>
    1fde:	dc 01       	movw	r26, r24
    1fe0:	ed 91       	ld	r30, X+
    1fe2:	fc 91       	ld	r31, X
    1fe4:	04 80       	ldd	r0, Z+4	; 0x04
    1fe6:	f5 81       	ldd	r31, Z+5	; 0x05
    1fe8:	e0 2d       	mov	r30, r0
    1fea:	19 95       	eicall
    1fec:	ff 91       	pop	r31
    1fee:	ef 91       	pop	r30
    1ff0:	bf 91       	pop	r27
    1ff2:	af 91       	pop	r26
    1ff4:	9f 91       	pop	r25
    1ff6:	8f 91       	pop	r24
    1ff8:	7f 91       	pop	r23
    1ffa:	6f 91       	pop	r22
    1ffc:	5f 91       	pop	r21
    1ffe:	4f 91       	pop	r20
    2000:	3f 91       	pop	r19
    2002:	2f 91       	pop	r18
    2004:	0f 90       	pop	r0
    2006:	0b be       	out	0x3b, r0	; 59
    2008:	0f 90       	pop	r0
    200a:	0f be       	out	0x3f, r0	; 63
    200c:	0f 90       	pop	r0
    200e:	1f 90       	pop	r1
    2010:	18 95       	reti

00002012 <__vector_17>:
    2012:	1f 92       	push	r1
    2014:	0f 92       	push	r0
    2016:	0f b6       	in	r0, 0x3f	; 63
    2018:	0f 92       	push	r0
    201a:	11 24       	eor	r1, r1
    201c:	0b b6       	in	r0, 0x3b	; 59
    201e:	0f 92       	push	r0
    2020:	2f 93       	push	r18
    2022:	3f 93       	push	r19
    2024:	4f 93       	push	r20
    2026:	5f 93       	push	r21
    2028:	6f 93       	push	r22
    202a:	7f 93       	push	r23
    202c:	8f 93       	push	r24
    202e:	9f 93       	push	r25
    2030:	af 93       	push	r26
    2032:	bf 93       	push	r27
    2034:	ef 93       	push	r30
    2036:	ff 93       	push	r31
    2038:	80 91 f7 1c 	lds	r24, 0x1CF7	; 0x801cf7 <timer_obj+0x2>
    203c:	90 91 f8 1c 	lds	r25, 0x1CF8	; 0x801cf8 <timer_obj+0x3>
    2040:	00 97       	sbiw	r24, 0x00	; 0
    2042:	39 f0       	breq	.+14     	; 0x2052 <__vector_17+0x40>
    2044:	dc 01       	movw	r26, r24
    2046:	ed 91       	ld	r30, X+
    2048:	fc 91       	ld	r31, X
    204a:	02 80       	ldd	r0, Z+2	; 0x02
    204c:	f3 81       	ldd	r31, Z+3	; 0x03
    204e:	e0 2d       	mov	r30, r0
    2050:	19 95       	eicall
    2052:	ff 91       	pop	r31
    2054:	ef 91       	pop	r30
    2056:	bf 91       	pop	r27
    2058:	af 91       	pop	r26
    205a:	9f 91       	pop	r25
    205c:	8f 91       	pop	r24
    205e:	7f 91       	pop	r23
    2060:	6f 91       	pop	r22
    2062:	5f 91       	pop	r21
    2064:	4f 91       	pop	r20
    2066:	3f 91       	pop	r19
    2068:	2f 91       	pop	r18
    206a:	0f 90       	pop	r0
    206c:	0b be       	out	0x3b, r0	; 59
    206e:	0f 90       	pop	r0
    2070:	0f be       	out	0x3f, r0	; 63
    2072:	0f 90       	pop	r0
    2074:	1f 90       	pop	r1
    2076:	18 95       	reti

00002078 <__vector_18>:
    2078:	1f 92       	push	r1
    207a:	0f 92       	push	r0
    207c:	0f b6       	in	r0, 0x3f	; 63
    207e:	0f 92       	push	r0
    2080:	11 24       	eor	r1, r1
    2082:	0b b6       	in	r0, 0x3b	; 59
    2084:	0f 92       	push	r0
    2086:	2f 93       	push	r18
    2088:	3f 93       	push	r19
    208a:	4f 93       	push	r20
    208c:	5f 93       	push	r21
    208e:	6f 93       	push	r22
    2090:	7f 93       	push	r23
    2092:	8f 93       	push	r24
    2094:	9f 93       	push	r25
    2096:	af 93       	push	r26
    2098:	bf 93       	push	r27
    209a:	ef 93       	push	r30
    209c:	ff 93       	push	r31
    209e:	80 91 f7 1c 	lds	r24, 0x1CF7	; 0x801cf7 <timer_obj+0x2>
    20a2:	90 91 f8 1c 	lds	r25, 0x1CF8	; 0x801cf8 <timer_obj+0x3>
    20a6:	00 97       	sbiw	r24, 0x00	; 0
    20a8:	39 f0       	breq	.+14     	; 0x20b8 <__vector_18+0x40>
    20aa:	dc 01       	movw	r26, r24
    20ac:	ed 91       	ld	r30, X+
    20ae:	fc 91       	ld	r31, X
    20b0:	04 80       	ldd	r0, Z+4	; 0x04
    20b2:	f5 81       	ldd	r31, Z+5	; 0x05
    20b4:	e0 2d       	mov	r30, r0
    20b6:	19 95       	eicall
    20b8:	ff 91       	pop	r31
    20ba:	ef 91       	pop	r30
    20bc:	bf 91       	pop	r27
    20be:	af 91       	pop	r26
    20c0:	9f 91       	pop	r25
    20c2:	8f 91       	pop	r24
    20c4:	7f 91       	pop	r23
    20c6:	6f 91       	pop	r22
    20c8:	5f 91       	pop	r21
    20ca:	4f 91       	pop	r20
    20cc:	3f 91       	pop	r19
    20ce:	2f 91       	pop	r18
    20d0:	0f 90       	pop	r0
    20d2:	0b be       	out	0x3b, r0	; 59
    20d4:	0f 90       	pop	r0
    20d6:	0f be       	out	0x3f, r0	; 63
    20d8:	0f 90       	pop	r0
    20da:	1f 90       	pop	r1
    20dc:	18 95       	reti

000020de <__vector_19>:
    20de:	1f 92       	push	r1
    20e0:	0f 92       	push	r0
    20e2:	0f b6       	in	r0, 0x3f	; 63
    20e4:	0f 92       	push	r0
    20e6:	11 24       	eor	r1, r1
    20e8:	0b b6       	in	r0, 0x3b	; 59
    20ea:	0f 92       	push	r0
    20ec:	2f 93       	push	r18
    20ee:	3f 93       	push	r19
    20f0:	4f 93       	push	r20
    20f2:	5f 93       	push	r21
    20f4:	6f 93       	push	r22
    20f6:	7f 93       	push	r23
    20f8:	8f 93       	push	r24
    20fa:	9f 93       	push	r25
    20fc:	af 93       	push	r26
    20fe:	bf 93       	push	r27
    2100:	ef 93       	push	r30
    2102:	ff 93       	push	r31
    2104:	80 91 f7 1c 	lds	r24, 0x1CF7	; 0x801cf7 <timer_obj+0x2>
    2108:	90 91 f8 1c 	lds	r25, 0x1CF8	; 0x801cf8 <timer_obj+0x3>
    210c:	00 97       	sbiw	r24, 0x00	; 0
    210e:	39 f0       	breq	.+14     	; 0x211e <__vector_19+0x40>
    2110:	dc 01       	movw	r26, r24
    2112:	ed 91       	ld	r30, X+
    2114:	fc 91       	ld	r31, X
    2116:	06 80       	ldd	r0, Z+6	; 0x06
    2118:	f7 81       	ldd	r31, Z+7	; 0x07
    211a:	e0 2d       	mov	r30, r0
    211c:	19 95       	eicall
    211e:	ff 91       	pop	r31
    2120:	ef 91       	pop	r30
    2122:	bf 91       	pop	r27
    2124:	af 91       	pop	r26
    2126:	9f 91       	pop	r25
    2128:	8f 91       	pop	r24
    212a:	7f 91       	pop	r23
    212c:	6f 91       	pop	r22
    212e:	5f 91       	pop	r21
    2130:	4f 91       	pop	r20
    2132:	3f 91       	pop	r19
    2134:	2f 91       	pop	r18
    2136:	0f 90       	pop	r0
    2138:	0b be       	out	0x3b, r0	; 59
    213a:	0f 90       	pop	r0
    213c:	0f be       	out	0x3f, r0	; 63
    213e:	0f 90       	pop	r0
    2140:	1f 90       	pop	r1
    2142:	18 95       	reti

00002144 <__vector_20>:
    2144:	1f 92       	push	r1
    2146:	0f 92       	push	r0
    2148:	0f b6       	in	r0, 0x3f	; 63
    214a:	0f 92       	push	r0
    214c:	11 24       	eor	r1, r1
    214e:	0b b6       	in	r0, 0x3b	; 59
    2150:	0f 92       	push	r0
    2152:	2f 93       	push	r18
    2154:	3f 93       	push	r19
    2156:	4f 93       	push	r20
    2158:	5f 93       	push	r21
    215a:	6f 93       	push	r22
    215c:	7f 93       	push	r23
    215e:	8f 93       	push	r24
    2160:	9f 93       	push	r25
    2162:	af 93       	push	r26
    2164:	bf 93       	push	r27
    2166:	ef 93       	push	r30
    2168:	ff 93       	push	r31
    216a:	80 91 f7 1c 	lds	r24, 0x1CF7	; 0x801cf7 <timer_obj+0x2>
    216e:	90 91 f8 1c 	lds	r25, 0x1CF8	; 0x801cf8 <timer_obj+0x3>
    2172:	00 97       	sbiw	r24, 0x00	; 0
    2174:	39 f0       	breq	.+14     	; 0x2184 <__vector_20+0x40>
    2176:	dc 01       	movw	r26, r24
    2178:	ed 91       	ld	r30, X+
    217a:	fc 91       	ld	r31, X
    217c:	00 84       	ldd	r0, Z+8	; 0x08
    217e:	f1 85       	ldd	r31, Z+9	; 0x09
    2180:	e0 2d       	mov	r30, r0
    2182:	19 95       	eicall
    2184:	ff 91       	pop	r31
    2186:	ef 91       	pop	r30
    2188:	bf 91       	pop	r27
    218a:	af 91       	pop	r26
    218c:	9f 91       	pop	r25
    218e:	8f 91       	pop	r24
    2190:	7f 91       	pop	r23
    2192:	6f 91       	pop	r22
    2194:	5f 91       	pop	r21
    2196:	4f 91       	pop	r20
    2198:	3f 91       	pop	r19
    219a:	2f 91       	pop	r18
    219c:	0f 90       	pop	r0
    219e:	0b be       	out	0x3b, r0	; 59
    21a0:	0f 90       	pop	r0
    21a2:	0f be       	out	0x3f, r0	; 63
    21a4:	0f 90       	pop	r0
    21a6:	1f 90       	pop	r1
    21a8:	18 95       	reti

000021aa <__vector_32>:
    21aa:	1f 92       	push	r1
    21ac:	0f 92       	push	r0
    21ae:	0f b6       	in	r0, 0x3f	; 63
    21b0:	0f 92       	push	r0
    21b2:	11 24       	eor	r1, r1
    21b4:	0b b6       	in	r0, 0x3b	; 59
    21b6:	0f 92       	push	r0
    21b8:	2f 93       	push	r18
    21ba:	3f 93       	push	r19
    21bc:	4f 93       	push	r20
    21be:	5f 93       	push	r21
    21c0:	6f 93       	push	r22
    21c2:	7f 93       	push	r23
    21c4:	8f 93       	push	r24
    21c6:	9f 93       	push	r25
    21c8:	af 93       	push	r26
    21ca:	bf 93       	push	r27
    21cc:	ef 93       	push	r30
    21ce:	ff 93       	push	r31
    21d0:	80 91 fb 1c 	lds	r24, 0x1CFB	; 0x801cfb <timer_obj+0x6>
    21d4:	90 91 fc 1c 	lds	r25, 0x1CFC	; 0x801cfc <timer_obj+0x7>
    21d8:	00 97       	sbiw	r24, 0x00	; 0
    21da:	39 f0       	breq	.+14     	; 0x21ea <__vector_32+0x40>
    21dc:	dc 01       	movw	r26, r24
    21de:	ed 91       	ld	r30, X+
    21e0:	fc 91       	ld	r31, X
    21e2:	02 80       	ldd	r0, Z+2	; 0x02
    21e4:	f3 81       	ldd	r31, Z+3	; 0x03
    21e6:	e0 2d       	mov	r30, r0
    21e8:	19 95       	eicall
    21ea:	ff 91       	pop	r31
    21ec:	ef 91       	pop	r30
    21ee:	bf 91       	pop	r27
    21f0:	af 91       	pop	r26
    21f2:	9f 91       	pop	r25
    21f4:	8f 91       	pop	r24
    21f6:	7f 91       	pop	r23
    21f8:	6f 91       	pop	r22
    21fa:	5f 91       	pop	r21
    21fc:	4f 91       	pop	r20
    21fe:	3f 91       	pop	r19
    2200:	2f 91       	pop	r18
    2202:	0f 90       	pop	r0
    2204:	0b be       	out	0x3b, r0	; 59
    2206:	0f 90       	pop	r0
    2208:	0f be       	out	0x3f, r0	; 63
    220a:	0f 90       	pop	r0
    220c:	1f 90       	pop	r1
    220e:	18 95       	reti

00002210 <__vector_33>:
    2210:	1f 92       	push	r1
    2212:	0f 92       	push	r0
    2214:	0f b6       	in	r0, 0x3f	; 63
    2216:	0f 92       	push	r0
    2218:	11 24       	eor	r1, r1
    221a:	0b b6       	in	r0, 0x3b	; 59
    221c:	0f 92       	push	r0
    221e:	2f 93       	push	r18
    2220:	3f 93       	push	r19
    2222:	4f 93       	push	r20
    2224:	5f 93       	push	r21
    2226:	6f 93       	push	r22
    2228:	7f 93       	push	r23
    222a:	8f 93       	push	r24
    222c:	9f 93       	push	r25
    222e:	af 93       	push	r26
    2230:	bf 93       	push	r27
    2232:	ef 93       	push	r30
    2234:	ff 93       	push	r31
    2236:	80 91 fb 1c 	lds	r24, 0x1CFB	; 0x801cfb <timer_obj+0x6>
    223a:	90 91 fc 1c 	lds	r25, 0x1CFC	; 0x801cfc <timer_obj+0x7>
    223e:	00 97       	sbiw	r24, 0x00	; 0
    2240:	39 f0       	breq	.+14     	; 0x2250 <__vector_33+0x40>
    2242:	dc 01       	movw	r26, r24
    2244:	ed 91       	ld	r30, X+
    2246:	fc 91       	ld	r31, X
    2248:	04 80       	ldd	r0, Z+4	; 0x04
    224a:	f5 81       	ldd	r31, Z+5	; 0x05
    224c:	e0 2d       	mov	r30, r0
    224e:	19 95       	eicall
    2250:	ff 91       	pop	r31
    2252:	ef 91       	pop	r30
    2254:	bf 91       	pop	r27
    2256:	af 91       	pop	r26
    2258:	9f 91       	pop	r25
    225a:	8f 91       	pop	r24
    225c:	7f 91       	pop	r23
    225e:	6f 91       	pop	r22
    2260:	5f 91       	pop	r21
    2262:	4f 91       	pop	r20
    2264:	3f 91       	pop	r19
    2266:	2f 91       	pop	r18
    2268:	0f 90       	pop	r0
    226a:	0b be       	out	0x3b, r0	; 59
    226c:	0f 90       	pop	r0
    226e:	0f be       	out	0x3f, r0	; 63
    2270:	0f 90       	pop	r0
    2272:	1f 90       	pop	r1
    2274:	18 95       	reti

00002276 <__vector_34>:
    2276:	1f 92       	push	r1
    2278:	0f 92       	push	r0
    227a:	0f b6       	in	r0, 0x3f	; 63
    227c:	0f 92       	push	r0
    227e:	11 24       	eor	r1, r1
    2280:	0b b6       	in	r0, 0x3b	; 59
    2282:	0f 92       	push	r0
    2284:	2f 93       	push	r18
    2286:	3f 93       	push	r19
    2288:	4f 93       	push	r20
    228a:	5f 93       	push	r21
    228c:	6f 93       	push	r22
    228e:	7f 93       	push	r23
    2290:	8f 93       	push	r24
    2292:	9f 93       	push	r25
    2294:	af 93       	push	r26
    2296:	bf 93       	push	r27
    2298:	ef 93       	push	r30
    229a:	ff 93       	push	r31
    229c:	80 91 fb 1c 	lds	r24, 0x1CFB	; 0x801cfb <timer_obj+0x6>
    22a0:	90 91 fc 1c 	lds	r25, 0x1CFC	; 0x801cfc <timer_obj+0x7>
    22a4:	00 97       	sbiw	r24, 0x00	; 0
    22a6:	39 f0       	breq	.+14     	; 0x22b6 <__vector_34+0x40>
    22a8:	dc 01       	movw	r26, r24
    22aa:	ed 91       	ld	r30, X+
    22ac:	fc 91       	ld	r31, X
    22ae:	06 80       	ldd	r0, Z+6	; 0x06
    22b0:	f7 81       	ldd	r31, Z+7	; 0x07
    22b2:	e0 2d       	mov	r30, r0
    22b4:	19 95       	eicall
    22b6:	ff 91       	pop	r31
    22b8:	ef 91       	pop	r30
    22ba:	bf 91       	pop	r27
    22bc:	af 91       	pop	r26
    22be:	9f 91       	pop	r25
    22c0:	8f 91       	pop	r24
    22c2:	7f 91       	pop	r23
    22c4:	6f 91       	pop	r22
    22c6:	5f 91       	pop	r21
    22c8:	4f 91       	pop	r20
    22ca:	3f 91       	pop	r19
    22cc:	2f 91       	pop	r18
    22ce:	0f 90       	pop	r0
    22d0:	0b be       	out	0x3b, r0	; 59
    22d2:	0f 90       	pop	r0
    22d4:	0f be       	out	0x3f, r0	; 63
    22d6:	0f 90       	pop	r0
    22d8:	1f 90       	pop	r1
    22da:	18 95       	reti

000022dc <__vector_35>:
    22dc:	1f 92       	push	r1
    22de:	0f 92       	push	r0
    22e0:	0f b6       	in	r0, 0x3f	; 63
    22e2:	0f 92       	push	r0
    22e4:	11 24       	eor	r1, r1
    22e6:	0b b6       	in	r0, 0x3b	; 59
    22e8:	0f 92       	push	r0
    22ea:	2f 93       	push	r18
    22ec:	3f 93       	push	r19
    22ee:	4f 93       	push	r20
    22f0:	5f 93       	push	r21
    22f2:	6f 93       	push	r22
    22f4:	7f 93       	push	r23
    22f6:	8f 93       	push	r24
    22f8:	9f 93       	push	r25
    22fa:	af 93       	push	r26
    22fc:	bf 93       	push	r27
    22fe:	ef 93       	push	r30
    2300:	ff 93       	push	r31
    2302:	80 91 fb 1c 	lds	r24, 0x1CFB	; 0x801cfb <timer_obj+0x6>
    2306:	90 91 fc 1c 	lds	r25, 0x1CFC	; 0x801cfc <timer_obj+0x7>
    230a:	00 97       	sbiw	r24, 0x00	; 0
    230c:	39 f0       	breq	.+14     	; 0x231c <__vector_35+0x40>
    230e:	dc 01       	movw	r26, r24
    2310:	ed 91       	ld	r30, X+
    2312:	fc 91       	ld	r31, X
    2314:	00 84       	ldd	r0, Z+8	; 0x08
    2316:	f1 85       	ldd	r31, Z+9	; 0x09
    2318:	e0 2d       	mov	r30, r0
    231a:	19 95       	eicall
    231c:	ff 91       	pop	r31
    231e:	ef 91       	pop	r30
    2320:	bf 91       	pop	r27
    2322:	af 91       	pop	r26
    2324:	9f 91       	pop	r25
    2326:	8f 91       	pop	r24
    2328:	7f 91       	pop	r23
    232a:	6f 91       	pop	r22
    232c:	5f 91       	pop	r21
    232e:	4f 91       	pop	r20
    2330:	3f 91       	pop	r19
    2332:	2f 91       	pop	r18
    2334:	0f 90       	pop	r0
    2336:	0b be       	out	0x3b, r0	; 59
    2338:	0f 90       	pop	r0
    233a:	0f be       	out	0x3f, r0	; 63
    233c:	0f 90       	pop	r0
    233e:	1f 90       	pop	r1
    2340:	18 95       	reti

00002342 <__vector_42>:
    2342:	1f 92       	push	r1
    2344:	0f 92       	push	r0
    2346:	0f b6       	in	r0, 0x3f	; 63
    2348:	0f 92       	push	r0
    234a:	11 24       	eor	r1, r1
    234c:	0b b6       	in	r0, 0x3b	; 59
    234e:	0f 92       	push	r0
    2350:	2f 93       	push	r18
    2352:	3f 93       	push	r19
    2354:	4f 93       	push	r20
    2356:	5f 93       	push	r21
    2358:	6f 93       	push	r22
    235a:	7f 93       	push	r23
    235c:	8f 93       	push	r24
    235e:	9f 93       	push	r25
    2360:	af 93       	push	r26
    2362:	bf 93       	push	r27
    2364:	ef 93       	push	r30
    2366:	ff 93       	push	r31
    2368:	80 91 fd 1c 	lds	r24, 0x1CFD	; 0x801cfd <timer_obj+0x8>
    236c:	90 91 fe 1c 	lds	r25, 0x1CFE	; 0x801cfe <timer_obj+0x9>
    2370:	00 97       	sbiw	r24, 0x00	; 0
    2372:	39 f0       	breq	.+14     	; 0x2382 <__vector_42+0x40>
    2374:	dc 01       	movw	r26, r24
    2376:	ed 91       	ld	r30, X+
    2378:	fc 91       	ld	r31, X
    237a:	02 80       	ldd	r0, Z+2	; 0x02
    237c:	f3 81       	ldd	r31, Z+3	; 0x03
    237e:	e0 2d       	mov	r30, r0
    2380:	19 95       	eicall
    2382:	ff 91       	pop	r31
    2384:	ef 91       	pop	r30
    2386:	bf 91       	pop	r27
    2388:	af 91       	pop	r26
    238a:	9f 91       	pop	r25
    238c:	8f 91       	pop	r24
    238e:	7f 91       	pop	r23
    2390:	6f 91       	pop	r22
    2392:	5f 91       	pop	r21
    2394:	4f 91       	pop	r20
    2396:	3f 91       	pop	r19
    2398:	2f 91       	pop	r18
    239a:	0f 90       	pop	r0
    239c:	0b be       	out	0x3b, r0	; 59
    239e:	0f 90       	pop	r0
    23a0:	0f be       	out	0x3f, r0	; 63
    23a2:	0f 90       	pop	r0
    23a4:	1f 90       	pop	r1
    23a6:	18 95       	reti

000023a8 <__vector_43>:
    23a8:	1f 92       	push	r1
    23aa:	0f 92       	push	r0
    23ac:	0f b6       	in	r0, 0x3f	; 63
    23ae:	0f 92       	push	r0
    23b0:	11 24       	eor	r1, r1
    23b2:	0b b6       	in	r0, 0x3b	; 59
    23b4:	0f 92       	push	r0
    23b6:	2f 93       	push	r18
    23b8:	3f 93       	push	r19
    23ba:	4f 93       	push	r20
    23bc:	5f 93       	push	r21
    23be:	6f 93       	push	r22
    23c0:	7f 93       	push	r23
    23c2:	8f 93       	push	r24
    23c4:	9f 93       	push	r25
    23c6:	af 93       	push	r26
    23c8:	bf 93       	push	r27
    23ca:	ef 93       	push	r30
    23cc:	ff 93       	push	r31
    23ce:	80 91 fd 1c 	lds	r24, 0x1CFD	; 0x801cfd <timer_obj+0x8>
    23d2:	90 91 fe 1c 	lds	r25, 0x1CFE	; 0x801cfe <timer_obj+0x9>
    23d6:	00 97       	sbiw	r24, 0x00	; 0
    23d8:	39 f0       	breq	.+14     	; 0x23e8 <__vector_43+0x40>
    23da:	dc 01       	movw	r26, r24
    23dc:	ed 91       	ld	r30, X+
    23de:	fc 91       	ld	r31, X
    23e0:	04 80       	ldd	r0, Z+4	; 0x04
    23e2:	f5 81       	ldd	r31, Z+5	; 0x05
    23e4:	e0 2d       	mov	r30, r0
    23e6:	19 95       	eicall
    23e8:	ff 91       	pop	r31
    23ea:	ef 91       	pop	r30
    23ec:	bf 91       	pop	r27
    23ee:	af 91       	pop	r26
    23f0:	9f 91       	pop	r25
    23f2:	8f 91       	pop	r24
    23f4:	7f 91       	pop	r23
    23f6:	6f 91       	pop	r22
    23f8:	5f 91       	pop	r21
    23fa:	4f 91       	pop	r20
    23fc:	3f 91       	pop	r19
    23fe:	2f 91       	pop	r18
    2400:	0f 90       	pop	r0
    2402:	0b be       	out	0x3b, r0	; 59
    2404:	0f 90       	pop	r0
    2406:	0f be       	out	0x3f, r0	; 63
    2408:	0f 90       	pop	r0
    240a:	1f 90       	pop	r1
    240c:	18 95       	reti

0000240e <__vector_44>:
    240e:	1f 92       	push	r1
    2410:	0f 92       	push	r0
    2412:	0f b6       	in	r0, 0x3f	; 63
    2414:	0f 92       	push	r0
    2416:	11 24       	eor	r1, r1
    2418:	0b b6       	in	r0, 0x3b	; 59
    241a:	0f 92       	push	r0
    241c:	2f 93       	push	r18
    241e:	3f 93       	push	r19
    2420:	4f 93       	push	r20
    2422:	5f 93       	push	r21
    2424:	6f 93       	push	r22
    2426:	7f 93       	push	r23
    2428:	8f 93       	push	r24
    242a:	9f 93       	push	r25
    242c:	af 93       	push	r26
    242e:	bf 93       	push	r27
    2430:	ef 93       	push	r30
    2432:	ff 93       	push	r31
    2434:	80 91 fd 1c 	lds	r24, 0x1CFD	; 0x801cfd <timer_obj+0x8>
    2438:	90 91 fe 1c 	lds	r25, 0x1CFE	; 0x801cfe <timer_obj+0x9>
    243c:	00 97       	sbiw	r24, 0x00	; 0
    243e:	39 f0       	breq	.+14     	; 0x244e <__vector_44+0x40>
    2440:	dc 01       	movw	r26, r24
    2442:	ed 91       	ld	r30, X+
    2444:	fc 91       	ld	r31, X
    2446:	06 80       	ldd	r0, Z+6	; 0x06
    2448:	f7 81       	ldd	r31, Z+7	; 0x07
    244a:	e0 2d       	mov	r30, r0
    244c:	19 95       	eicall
    244e:	ff 91       	pop	r31
    2450:	ef 91       	pop	r30
    2452:	bf 91       	pop	r27
    2454:	af 91       	pop	r26
    2456:	9f 91       	pop	r25
    2458:	8f 91       	pop	r24
    245a:	7f 91       	pop	r23
    245c:	6f 91       	pop	r22
    245e:	5f 91       	pop	r21
    2460:	4f 91       	pop	r20
    2462:	3f 91       	pop	r19
    2464:	2f 91       	pop	r18
    2466:	0f 90       	pop	r0
    2468:	0b be       	out	0x3b, r0	; 59
    246a:	0f 90       	pop	r0
    246c:	0f be       	out	0x3f, r0	; 63
    246e:	0f 90       	pop	r0
    2470:	1f 90       	pop	r1
    2472:	18 95       	reti

00002474 <__vector_45>:
    2474:	1f 92       	push	r1
    2476:	0f 92       	push	r0
    2478:	0f b6       	in	r0, 0x3f	; 63
    247a:	0f 92       	push	r0
    247c:	11 24       	eor	r1, r1
    247e:	0b b6       	in	r0, 0x3b	; 59
    2480:	0f 92       	push	r0
    2482:	2f 93       	push	r18
    2484:	3f 93       	push	r19
    2486:	4f 93       	push	r20
    2488:	5f 93       	push	r21
    248a:	6f 93       	push	r22
    248c:	7f 93       	push	r23
    248e:	8f 93       	push	r24
    2490:	9f 93       	push	r25
    2492:	af 93       	push	r26
    2494:	bf 93       	push	r27
    2496:	ef 93       	push	r30
    2498:	ff 93       	push	r31
    249a:	80 91 fd 1c 	lds	r24, 0x1CFD	; 0x801cfd <timer_obj+0x8>
    249e:	90 91 fe 1c 	lds	r25, 0x1CFE	; 0x801cfe <timer_obj+0x9>
    24a2:	00 97       	sbiw	r24, 0x00	; 0
    24a4:	39 f0       	breq	.+14     	; 0x24b4 <__vector_45+0x40>
    24a6:	dc 01       	movw	r26, r24
    24a8:	ed 91       	ld	r30, X+
    24aa:	fc 91       	ld	r31, X
    24ac:	00 84       	ldd	r0, Z+8	; 0x08
    24ae:	f1 85       	ldd	r31, Z+9	; 0x09
    24b0:	e0 2d       	mov	r30, r0
    24b2:	19 95       	eicall
    24b4:	ff 91       	pop	r31
    24b6:	ef 91       	pop	r30
    24b8:	bf 91       	pop	r27
    24ba:	af 91       	pop	r26
    24bc:	9f 91       	pop	r25
    24be:	8f 91       	pop	r24
    24c0:	7f 91       	pop	r23
    24c2:	6f 91       	pop	r22
    24c4:	5f 91       	pop	r21
    24c6:	4f 91       	pop	r20
    24c8:	3f 91       	pop	r19
    24ca:	2f 91       	pop	r18
    24cc:	0f 90       	pop	r0
    24ce:	0b be       	out	0x3b, r0	; 59
    24d0:	0f 90       	pop	r0
    24d2:	0f be       	out	0x3f, r0	; 63
    24d4:	0f 90       	pop	r0
    24d6:	1f 90       	pop	r1
    24d8:	18 95       	reti

000024da <__vector_47>:
    24da:	1f 92       	push	r1
    24dc:	0f 92       	push	r0
    24de:	0f b6       	in	r0, 0x3f	; 63
    24e0:	0f 92       	push	r0
    24e2:	11 24       	eor	r1, r1
    24e4:	0b b6       	in	r0, 0x3b	; 59
    24e6:	0f 92       	push	r0
    24e8:	2f 93       	push	r18
    24ea:	3f 93       	push	r19
    24ec:	4f 93       	push	r20
    24ee:	5f 93       	push	r21
    24f0:	6f 93       	push	r22
    24f2:	7f 93       	push	r23
    24f4:	8f 93       	push	r24
    24f6:	9f 93       	push	r25
    24f8:	af 93       	push	r26
    24fa:	bf 93       	push	r27
    24fc:	ef 93       	push	r30
    24fe:	ff 93       	push	r31
    2500:	80 91 ff 1c 	lds	r24, 0x1CFF	; 0x801cff <timer_obj+0xa>
    2504:	90 91 00 1d 	lds	r25, 0x1D00	; 0x801d00 <timer_obj+0xb>
    2508:	00 97       	sbiw	r24, 0x00	; 0
    250a:	39 f0       	breq	.+14     	; 0x251a <__vector_47+0x40>
    250c:	dc 01       	movw	r26, r24
    250e:	ed 91       	ld	r30, X+
    2510:	fc 91       	ld	r31, X
    2512:	02 80       	ldd	r0, Z+2	; 0x02
    2514:	f3 81       	ldd	r31, Z+3	; 0x03
    2516:	e0 2d       	mov	r30, r0
    2518:	19 95       	eicall
    251a:	ff 91       	pop	r31
    251c:	ef 91       	pop	r30
    251e:	bf 91       	pop	r27
    2520:	af 91       	pop	r26
    2522:	9f 91       	pop	r25
    2524:	8f 91       	pop	r24
    2526:	7f 91       	pop	r23
    2528:	6f 91       	pop	r22
    252a:	5f 91       	pop	r21
    252c:	4f 91       	pop	r20
    252e:	3f 91       	pop	r19
    2530:	2f 91       	pop	r18
    2532:	0f 90       	pop	r0
    2534:	0b be       	out	0x3b, r0	; 59
    2536:	0f 90       	pop	r0
    2538:	0f be       	out	0x3f, r0	; 63
    253a:	0f 90       	pop	r0
    253c:	1f 90       	pop	r1
    253e:	18 95       	reti

00002540 <__vector_48>:
    2540:	1f 92       	push	r1
    2542:	0f 92       	push	r0
    2544:	0f b6       	in	r0, 0x3f	; 63
    2546:	0f 92       	push	r0
    2548:	11 24       	eor	r1, r1
    254a:	0b b6       	in	r0, 0x3b	; 59
    254c:	0f 92       	push	r0
    254e:	2f 93       	push	r18
    2550:	3f 93       	push	r19
    2552:	4f 93       	push	r20
    2554:	5f 93       	push	r21
    2556:	6f 93       	push	r22
    2558:	7f 93       	push	r23
    255a:	8f 93       	push	r24
    255c:	9f 93       	push	r25
    255e:	af 93       	push	r26
    2560:	bf 93       	push	r27
    2562:	ef 93       	push	r30
    2564:	ff 93       	push	r31
    2566:	80 91 ff 1c 	lds	r24, 0x1CFF	; 0x801cff <timer_obj+0xa>
    256a:	90 91 00 1d 	lds	r25, 0x1D00	; 0x801d00 <timer_obj+0xb>
    256e:	00 97       	sbiw	r24, 0x00	; 0
    2570:	39 f0       	breq	.+14     	; 0x2580 <__vector_48+0x40>
    2572:	dc 01       	movw	r26, r24
    2574:	ed 91       	ld	r30, X+
    2576:	fc 91       	ld	r31, X
    2578:	04 80       	ldd	r0, Z+4	; 0x04
    257a:	f5 81       	ldd	r31, Z+5	; 0x05
    257c:	e0 2d       	mov	r30, r0
    257e:	19 95       	eicall
    2580:	ff 91       	pop	r31
    2582:	ef 91       	pop	r30
    2584:	bf 91       	pop	r27
    2586:	af 91       	pop	r26
    2588:	9f 91       	pop	r25
    258a:	8f 91       	pop	r24
    258c:	7f 91       	pop	r23
    258e:	6f 91       	pop	r22
    2590:	5f 91       	pop	r21
    2592:	4f 91       	pop	r20
    2594:	3f 91       	pop	r19
    2596:	2f 91       	pop	r18
    2598:	0f 90       	pop	r0
    259a:	0b be       	out	0x3b, r0	; 59
    259c:	0f 90       	pop	r0
    259e:	0f be       	out	0x3f, r0	; 63
    25a0:	0f 90       	pop	r0
    25a2:	1f 90       	pop	r1
    25a4:	18 95       	reti

000025a6 <__vector_49>:
    25a6:	1f 92       	push	r1
    25a8:	0f 92       	push	r0
    25aa:	0f b6       	in	r0, 0x3f	; 63
    25ac:	0f 92       	push	r0
    25ae:	11 24       	eor	r1, r1
    25b0:	0b b6       	in	r0, 0x3b	; 59
    25b2:	0f 92       	push	r0
    25b4:	2f 93       	push	r18
    25b6:	3f 93       	push	r19
    25b8:	4f 93       	push	r20
    25ba:	5f 93       	push	r21
    25bc:	6f 93       	push	r22
    25be:	7f 93       	push	r23
    25c0:	8f 93       	push	r24
    25c2:	9f 93       	push	r25
    25c4:	af 93       	push	r26
    25c6:	bf 93       	push	r27
    25c8:	ef 93       	push	r30
    25ca:	ff 93       	push	r31
    25cc:	80 91 ff 1c 	lds	r24, 0x1CFF	; 0x801cff <timer_obj+0xa>
    25d0:	90 91 00 1d 	lds	r25, 0x1D00	; 0x801d00 <timer_obj+0xb>
    25d4:	00 97       	sbiw	r24, 0x00	; 0
    25d6:	39 f0       	breq	.+14     	; 0x25e6 <__vector_49+0x40>
    25d8:	dc 01       	movw	r26, r24
    25da:	ed 91       	ld	r30, X+
    25dc:	fc 91       	ld	r31, X
    25de:	06 80       	ldd	r0, Z+6	; 0x06
    25e0:	f7 81       	ldd	r31, Z+7	; 0x07
    25e2:	e0 2d       	mov	r30, r0
    25e4:	19 95       	eicall
    25e6:	ff 91       	pop	r31
    25e8:	ef 91       	pop	r30
    25ea:	bf 91       	pop	r27
    25ec:	af 91       	pop	r26
    25ee:	9f 91       	pop	r25
    25f0:	8f 91       	pop	r24
    25f2:	7f 91       	pop	r23
    25f4:	6f 91       	pop	r22
    25f6:	5f 91       	pop	r21
    25f8:	4f 91       	pop	r20
    25fa:	3f 91       	pop	r19
    25fc:	2f 91       	pop	r18
    25fe:	0f 90       	pop	r0
    2600:	0b be       	out	0x3b, r0	; 59
    2602:	0f 90       	pop	r0
    2604:	0f be       	out	0x3f, r0	; 63
    2606:	0f 90       	pop	r0
    2608:	1f 90       	pop	r1
    260a:	18 95       	reti

0000260c <__vector_50>:
    260c:	1f 92       	push	r1
    260e:	0f 92       	push	r0
    2610:	0f b6       	in	r0, 0x3f	; 63
    2612:	0f 92       	push	r0
    2614:	11 24       	eor	r1, r1
    2616:	0b b6       	in	r0, 0x3b	; 59
    2618:	0f 92       	push	r0
    261a:	2f 93       	push	r18
    261c:	3f 93       	push	r19
    261e:	4f 93       	push	r20
    2620:	5f 93       	push	r21
    2622:	6f 93       	push	r22
    2624:	7f 93       	push	r23
    2626:	8f 93       	push	r24
    2628:	9f 93       	push	r25
    262a:	af 93       	push	r26
    262c:	bf 93       	push	r27
    262e:	ef 93       	push	r30
    2630:	ff 93       	push	r31
    2632:	80 91 ff 1c 	lds	r24, 0x1CFF	; 0x801cff <timer_obj+0xa>
    2636:	90 91 00 1d 	lds	r25, 0x1D00	; 0x801d00 <timer_obj+0xb>
    263a:	00 97       	sbiw	r24, 0x00	; 0
    263c:	39 f0       	breq	.+14     	; 0x264c <__vector_50+0x40>
    263e:	dc 01       	movw	r26, r24
    2640:	ed 91       	ld	r30, X+
    2642:	fc 91       	ld	r31, X
    2644:	00 84       	ldd	r0, Z+8	; 0x08
    2646:	f1 85       	ldd	r31, Z+9	; 0x09
    2648:	e0 2d       	mov	r30, r0
    264a:	19 95       	eicall
    264c:	ff 91       	pop	r31
    264e:	ef 91       	pop	r30
    2650:	bf 91       	pop	r27
    2652:	af 91       	pop	r26
    2654:	9f 91       	pop	r25
    2656:	8f 91       	pop	r24
    2658:	7f 91       	pop	r23
    265a:	6f 91       	pop	r22
    265c:	5f 91       	pop	r21
    265e:	4f 91       	pop	r20
    2660:	3f 91       	pop	r19
    2662:	2f 91       	pop	r18
    2664:	0f 90       	pop	r0
    2666:	0b be       	out	0x3b, r0	; 59
    2668:	0f 90       	pop	r0
    266a:	0f be       	out	0x3f, r0	; 63
    266c:	0f 90       	pop	r0
    266e:	1f 90       	pop	r1
    2670:	18 95       	reti

00002672 <_ZN7Timer16C1EhPFvvES1_S1_S1_>:
    2672:	9f 92       	push	r9
    2674:	af 92       	push	r10
    2676:	bf 92       	push	r11
    2678:	cf 92       	push	r12
    267a:	df 92       	push	r13
    267c:	ef 92       	push	r14
    267e:	ff 92       	push	r15
    2680:	0f 93       	push	r16
    2682:	1f 93       	push	r17
    2684:	cf 93       	push	r28
    2686:	df 93       	push	r29
    2688:	ec 01       	movw	r28, r24
    268a:	96 2e       	mov	r9, r22
    268c:	5a 01       	movw	r10, r20
    268e:	69 01       	movw	r12, r18
    2690:	80 e9       	ldi	r24, 0x90	; 144
    2692:	92 e0       	ldi	r25, 0x02	; 2
    2694:	99 83       	std	Y+1, r25	; 0x01
    2696:	88 83       	st	Y, r24
    2698:	86 2f       	mov	r24, r22
    269a:	c9 d2       	rcall	.+1426   	; 0x2c2e <_Z20tc_handle_to_addressh>
    269c:	9b 83       	std	Y+3, r25	; 0x03
    269e:	8a 83       	std	Y+2, r24	; 0x02
    26a0:	e9 2d       	mov	r30, r9
    26a2:	f0 e0       	ldi	r31, 0x00	; 0
    26a4:	ee 0f       	add	r30, r30
    26a6:	ff 1f       	adc	r31, r31
    26a8:	ec 53       	subi	r30, 0x3C	; 60
    26aa:	fd 4f       	sbci	r31, 0xFD	; 253
    26ac:	80 81       	ld	r24, Z
    26ae:	91 81       	ldd	r25, Z+1	; 0x01
    26b0:	01 96       	adiw	r24, 0x01	; 1
    26b2:	9d 83       	std	Y+5, r25	; 0x05
    26b4:	8c 83       	std	Y+4, r24	; 0x04
    26b6:	8a eb       	ldi	r24, 0xBA	; 186
    26b8:	92 e0       	ldi	r25, 0x02	; 2
    26ba:	99 83       	std	Y+1, r25	; 0x01
    26bc:	88 83       	st	Y, r24
    26be:	81 e0       	ldi	r24, 0x01	; 1
    26c0:	98 12       	cpse	r9, r24
    26c2:	26 c0       	rjmp	.+76     	; 0x2710 <_ZN7Timer16C1EhPFvvES1_S1_S1_+0x9e>
    26c4:	d0 93 f8 1c 	sts	0x1CF8, r29	; 0x801cf8 <timer_obj+0x3>
    26c8:	c0 93 f7 1c 	sts	0x1CF7, r28	; 0x801cf7 <timer_obj+0x2>
    26cc:	a1 14       	cp	r10, r1
    26ce:	b1 04       	cpc	r11, r1
    26d0:	29 f0       	breq	.+10     	; 0x26dc <_ZN7Timer16C1EhPFvvES1_S1_S1_+0x6a>
    26d2:	ef e6       	ldi	r30, 0x6F	; 111
    26d4:	f0 e0       	ldi	r31, 0x00	; 0
    26d6:	80 81       	ld	r24, Z
    26d8:	82 60       	ori	r24, 0x02	; 2
    26da:	80 83       	st	Z, r24
    26dc:	c1 14       	cp	r12, r1
    26de:	d1 04       	cpc	r13, r1
    26e0:	29 f0       	breq	.+10     	; 0x26ec <_ZN7Timer16C1EhPFvvES1_S1_S1_+0x7a>
    26e2:	ef e6       	ldi	r30, 0x6F	; 111
    26e4:	f0 e0       	ldi	r31, 0x00	; 0
    26e6:	80 81       	ld	r24, Z
    26e8:	84 60       	ori	r24, 0x04	; 4
    26ea:	80 83       	st	Z, r24
    26ec:	01 15       	cp	r16, r1
    26ee:	11 05       	cpc	r17, r1
    26f0:	29 f0       	breq	.+10     	; 0x26fc <_ZN7Timer16C1EhPFvvES1_S1_S1_+0x8a>
    26f2:	ef e6       	ldi	r30, 0x6F	; 111
    26f4:	f0 e0       	ldi	r31, 0x00	; 0
    26f6:	80 81       	ld	r24, Z
    26f8:	88 60       	ori	r24, 0x08	; 8
    26fa:	80 83       	st	Z, r24
    26fc:	e1 14       	cp	r14, r1
    26fe:	f1 04       	cpc	r15, r1
    2700:	09 f4       	brne	.+2      	; 0x2704 <_ZN7Timer16C1EhPFvvES1_S1_S1_+0x92>
    2702:	7e c0       	rjmp	.+252    	; 0x2800 <_ZN7Timer16C1EhPFvvES1_S1_S1_+0x18e>
    2704:	ef e6       	ldi	r30, 0x6F	; 111
    2706:	f0 e0       	ldi	r31, 0x00	; 0
    2708:	80 81       	ld	r24, Z
    270a:	81 60       	ori	r24, 0x01	; 1
    270c:	80 83       	st	Z, r24
    270e:	78 c0       	rjmp	.+240    	; 0x2800 <_ZN7Timer16C1EhPFvvES1_S1_S1_+0x18e>
    2710:	83 e0       	ldi	r24, 0x03	; 3
    2712:	98 12       	cpse	r9, r24
    2714:	26 c0       	rjmp	.+76     	; 0x2762 <_ZN7Timer16C1EhPFvvES1_S1_S1_+0xf0>
    2716:	d0 93 fc 1c 	sts	0x1CFC, r29	; 0x801cfc <timer_obj+0x7>
    271a:	c0 93 fb 1c 	sts	0x1CFB, r28	; 0x801cfb <timer_obj+0x6>
    271e:	a1 14       	cp	r10, r1
    2720:	b1 04       	cpc	r11, r1
    2722:	29 f0       	breq	.+10     	; 0x272e <_ZN7Timer16C1EhPFvvES1_S1_S1_+0xbc>
    2724:	e1 e7       	ldi	r30, 0x71	; 113
    2726:	f0 e0       	ldi	r31, 0x00	; 0
    2728:	80 81       	ld	r24, Z
    272a:	82 60       	ori	r24, 0x02	; 2
    272c:	80 83       	st	Z, r24
    272e:	c1 14       	cp	r12, r1
    2730:	d1 04       	cpc	r13, r1
    2732:	29 f0       	breq	.+10     	; 0x273e <_ZN7Timer16C1EhPFvvES1_S1_S1_+0xcc>
    2734:	e1 e7       	ldi	r30, 0x71	; 113
    2736:	f0 e0       	ldi	r31, 0x00	; 0
    2738:	80 81       	ld	r24, Z
    273a:	84 60       	ori	r24, 0x04	; 4
    273c:	80 83       	st	Z, r24
    273e:	01 15       	cp	r16, r1
    2740:	11 05       	cpc	r17, r1
    2742:	29 f0       	breq	.+10     	; 0x274e <_ZN7Timer16C1EhPFvvES1_S1_S1_+0xdc>
    2744:	e1 e7       	ldi	r30, 0x71	; 113
    2746:	f0 e0       	ldi	r31, 0x00	; 0
    2748:	80 81       	ld	r24, Z
    274a:	88 60       	ori	r24, 0x08	; 8
    274c:	80 83       	st	Z, r24
    274e:	e1 14       	cp	r14, r1
    2750:	f1 04       	cpc	r15, r1
    2752:	09 f4       	brne	.+2      	; 0x2756 <_ZN7Timer16C1EhPFvvES1_S1_S1_+0xe4>
    2754:	55 c0       	rjmp	.+170    	; 0x2800 <_ZN7Timer16C1EhPFvvES1_S1_S1_+0x18e>
    2756:	e1 e7       	ldi	r30, 0x71	; 113
    2758:	f0 e0       	ldi	r31, 0x00	; 0
    275a:	80 81       	ld	r24, Z
    275c:	81 60       	ori	r24, 0x01	; 1
    275e:	80 83       	st	Z, r24
    2760:	4f c0       	rjmp	.+158    	; 0x2800 <_ZN7Timer16C1EhPFvvES1_S1_S1_+0x18e>
    2762:	84 e0       	ldi	r24, 0x04	; 4
    2764:	98 12       	cpse	r9, r24
    2766:	25 c0       	rjmp	.+74     	; 0x27b2 <_ZN7Timer16C1EhPFvvES1_S1_S1_+0x140>
    2768:	d0 93 fe 1c 	sts	0x1CFE, r29	; 0x801cfe <timer_obj+0x9>
    276c:	c0 93 fd 1c 	sts	0x1CFD, r28	; 0x801cfd <timer_obj+0x8>
    2770:	a1 14       	cp	r10, r1
    2772:	b1 04       	cpc	r11, r1
    2774:	29 f0       	breq	.+10     	; 0x2780 <_ZN7Timer16C1EhPFvvES1_S1_S1_+0x10e>
    2776:	e2 e7       	ldi	r30, 0x72	; 114
    2778:	f0 e0       	ldi	r31, 0x00	; 0
    277a:	80 81       	ld	r24, Z
    277c:	82 60       	ori	r24, 0x02	; 2
    277e:	80 83       	st	Z, r24
    2780:	c1 14       	cp	r12, r1
    2782:	d1 04       	cpc	r13, r1
    2784:	29 f0       	breq	.+10     	; 0x2790 <_ZN7Timer16C1EhPFvvES1_S1_S1_+0x11e>
    2786:	e2 e7       	ldi	r30, 0x72	; 114
    2788:	f0 e0       	ldi	r31, 0x00	; 0
    278a:	80 81       	ld	r24, Z
    278c:	84 60       	ori	r24, 0x04	; 4
    278e:	80 83       	st	Z, r24
    2790:	01 15       	cp	r16, r1
    2792:	11 05       	cpc	r17, r1
    2794:	29 f0       	breq	.+10     	; 0x27a0 <_ZN7Timer16C1EhPFvvES1_S1_S1_+0x12e>
    2796:	e2 e7       	ldi	r30, 0x72	; 114
    2798:	f0 e0       	ldi	r31, 0x00	; 0
    279a:	80 81       	ld	r24, Z
    279c:	88 60       	ori	r24, 0x08	; 8
    279e:	80 83       	st	Z, r24
    27a0:	e1 14       	cp	r14, r1
    27a2:	f1 04       	cpc	r15, r1
    27a4:	69 f1       	breq	.+90     	; 0x2800 <_ZN7Timer16C1EhPFvvES1_S1_S1_+0x18e>
    27a6:	e2 e7       	ldi	r30, 0x72	; 114
    27a8:	f0 e0       	ldi	r31, 0x00	; 0
    27aa:	80 81       	ld	r24, Z
    27ac:	81 60       	ori	r24, 0x01	; 1
    27ae:	80 83       	st	Z, r24
    27b0:	27 c0       	rjmp	.+78     	; 0x2800 <_ZN7Timer16C1EhPFvvES1_S1_S1_+0x18e>
    27b2:	85 e0       	ldi	r24, 0x05	; 5
    27b4:	98 12       	cpse	r9, r24
    27b6:	2e c0       	rjmp	.+92     	; 0x2814 <_ZN7Timer16C1EhPFvvES1_S1_S1_+0x1a2>
    27b8:	d0 93 00 1d 	sts	0x1D00, r29	; 0x801d00 <timer_obj+0xb>
    27bc:	c0 93 ff 1c 	sts	0x1CFF, r28	; 0x801cff <timer_obj+0xa>
    27c0:	a1 14       	cp	r10, r1
    27c2:	b1 04       	cpc	r11, r1
    27c4:	29 f0       	breq	.+10     	; 0x27d0 <_ZN7Timer16C1EhPFvvES1_S1_S1_+0x15e>
    27c6:	e3 e7       	ldi	r30, 0x73	; 115
    27c8:	f0 e0       	ldi	r31, 0x00	; 0
    27ca:	80 81       	ld	r24, Z
    27cc:	82 60       	ori	r24, 0x02	; 2
    27ce:	80 83       	st	Z, r24
    27d0:	c1 14       	cp	r12, r1
    27d2:	d1 04       	cpc	r13, r1
    27d4:	29 f0       	breq	.+10     	; 0x27e0 <_ZN7Timer16C1EhPFvvES1_S1_S1_+0x16e>
    27d6:	e3 e7       	ldi	r30, 0x73	; 115
    27d8:	f0 e0       	ldi	r31, 0x00	; 0
    27da:	80 81       	ld	r24, Z
    27dc:	84 60       	ori	r24, 0x04	; 4
    27de:	80 83       	st	Z, r24
    27e0:	01 15       	cp	r16, r1
    27e2:	11 05       	cpc	r17, r1
    27e4:	29 f0       	breq	.+10     	; 0x27f0 <_ZN7Timer16C1EhPFvvES1_S1_S1_+0x17e>
    27e6:	e3 e7       	ldi	r30, 0x73	; 115
    27e8:	f0 e0       	ldi	r31, 0x00	; 0
    27ea:	80 81       	ld	r24, Z
    27ec:	88 60       	ori	r24, 0x08	; 8
    27ee:	80 83       	st	Z, r24
    27f0:	e1 14       	cp	r14, r1
    27f2:	f1 04       	cpc	r15, r1
    27f4:	29 f0       	breq	.+10     	; 0x2800 <_ZN7Timer16C1EhPFvvES1_S1_S1_+0x18e>
    27f6:	e3 e7       	ldi	r30, 0x73	; 115
    27f8:	f0 e0       	ldi	r31, 0x00	; 0
    27fa:	80 81       	ld	r24, Z
    27fc:	81 60       	ori	r24, 0x01	; 1
    27fe:	80 83       	st	Z, r24
    2800:	b9 86       	std	Y+9, r11	; 0x09
    2802:	a8 86       	std	Y+8, r10	; 0x08
    2804:	db 86       	std	Y+11, r13	; 0x0b
    2806:	ca 86       	std	Y+10, r12	; 0x0a
    2808:	1d 87       	std	Y+13, r17	; 0x0d
    280a:	0c 87       	std	Y+12, r16	; 0x0c
    280c:	ff 86       	std	Y+15, r15	; 0x0f
    280e:	ee 86       	std	Y+14, r14	; 0x0e
    2810:	1e 82       	std	Y+6, r1	; 0x06
    2812:	1f 82       	std	Y+7, r1	; 0x07
    2814:	df 91       	pop	r29
    2816:	cf 91       	pop	r28
    2818:	1f 91       	pop	r17
    281a:	0f 91       	pop	r16
    281c:	ff 90       	pop	r15
    281e:	ef 90       	pop	r14
    2820:	df 90       	pop	r13
    2822:	cf 90       	pop	r12
    2824:	bf 90       	pop	r11
    2826:	af 90       	pop	r10
    2828:	9f 90       	pop	r9
    282a:	08 95       	ret

0000282c <_ZN7Timer168start_msEjjjjh>:
    282c:	ef 92       	push	r14
    282e:	ff 92       	push	r15
    2830:	0f 93       	push	r16
    2832:	1f 93       	push	r17
    2834:	cf 93       	push	r28
    2836:	df 93       	push	r29
    2838:	fc 01       	movw	r30, r24
    283a:	ff b6       	in	r15, 0x3f	; 63
    283c:	f8 94       	cli
    283e:	a4 81       	ldd	r26, Z+4	; 0x04
    2840:	b5 81       	ldd	r27, Z+5	; 0x05
    2842:	8c 91       	ld	r24, X
    2844:	88 7f       	andi	r24, 0xF8	; 248
    2846:	8c 93       	st	X, r24
    2848:	a4 81       	ldd	r26, Z+4	; 0x04
    284a:	b5 81       	ldd	r27, Z+5	; 0x05
    284c:	8c 91       	ld	r24, X
    284e:	85 60       	ori	r24, 0x05	; 5
    2850:	8c 93       	st	X, r24
    2852:	a6 2f       	mov	r26, r22
    2854:	b7 2f       	mov	r27, r23
    2856:	a2 31       	cpi	r26, 0x12	; 18
    2858:	81 e1       	ldi	r24, 0x11	; 17
    285a:	b8 07       	cpc	r27, r24
    285c:	10 f0       	brcs	.+4      	; 0x2862 <_ZN7Timer168start_msEjjjjh+0x36>
    285e:	a1 e1       	ldi	r26, 0x11	; 17
    2860:	b1 e1       	ldi	r27, 0x11	; 17
    2862:	8f e0       	ldi	r24, 0x0F	; 15
    2864:	8a 9f       	mul	r24, r26
    2866:	e0 01       	movw	r28, r0
    2868:	8b 9f       	mul	r24, r27
    286a:	d0 0d       	add	r29, r0
    286c:	11 24       	eor	r1, r1
    286e:	64 2f       	mov	r22, r20
    2870:	75 2f       	mov	r23, r21
    2872:	62 31       	cpi	r22, 0x12	; 18
    2874:	81 e1       	ldi	r24, 0x11	; 17
    2876:	78 07       	cpc	r23, r24
    2878:	10 f0       	brcs	.+4      	; 0x287e <_ZN7Timer168start_msEjjjjh+0x52>
    287a:	61 e1       	ldi	r22, 0x11	; 17
    287c:	71 e1       	ldi	r23, 0x11	; 17
    287e:	8f e0       	ldi	r24, 0x0F	; 15
    2880:	86 9f       	mul	r24, r22
    2882:	d0 01       	movw	r26, r0
    2884:	87 9f       	mul	r24, r23
    2886:	b0 0d       	add	r27, r0
    2888:	11 24       	eor	r1, r1
    288a:	42 2f       	mov	r20, r18
    288c:	53 2f       	mov	r21, r19
    288e:	42 31       	cpi	r20, 0x12	; 18
    2890:	81 e1       	ldi	r24, 0x11	; 17
    2892:	58 07       	cpc	r21, r24
    2894:	10 f0       	brcs	.+4      	; 0x289a <_ZN7Timer168start_msEjjjjh+0x6e>
    2896:	41 e1       	ldi	r20, 0x11	; 17
    2898:	51 e1       	ldi	r21, 0x11	; 17
    289a:	8f e0       	ldi	r24, 0x0F	; 15
    289c:	84 9f       	mul	r24, r20
    289e:	b0 01       	movw	r22, r0
    28a0:	85 9f       	mul	r24, r21
    28a2:	70 0d       	add	r23, r0
    28a4:	11 24       	eor	r1, r1
    28a6:	20 2f       	mov	r18, r16
    28a8:	31 2f       	mov	r19, r17
    28aa:	22 31       	cpi	r18, 0x12	; 18
    28ac:	81 e1       	ldi	r24, 0x11	; 17
    28ae:	38 07       	cpc	r19, r24
    28b0:	10 f0       	brcs	.+4      	; 0x28b6 <_ZN7Timer168start_msEjjjjh+0x8a>
    28b2:	21 e1       	ldi	r18, 0x11	; 17
    28b4:	31 e1       	ldi	r19, 0x11	; 17
    28b6:	8f e0       	ldi	r24, 0x0F	; 15
    28b8:	82 9f       	mul	r24, r18
    28ba:	a0 01       	movw	r20, r0
    28bc:	83 9f       	mul	r24, r19
    28be:	50 0d       	add	r21, r0
    28c0:	11 24       	eor	r1, r1
    28c2:	51 8b       	std	Z+17, r21	; 0x11
    28c4:	40 8b       	std	Z+16, r20	; 0x10
    28c6:	82 81       	ldd	r24, Z+2	; 0x02
    28c8:	93 81       	ldd	r25, Z+3	; 0x03
    28ca:	20 91 c6 02 	lds	r18, 0x02C6	; 0x8002c6 <tc_vect+0x2>
    28ce:	30 91 c7 02 	lds	r19, 0x02C7	; 0x8002c7 <tc_vect+0x3>
    28d2:	82 17       	cp	r24, r18
    28d4:	93 07       	cpc	r25, r19
    28d6:	89 f4       	brne	.+34     	; 0x28fa <_ZN7Timer168start_msEjjjjh+0xce>
    28d8:	d0 93 89 00 	sts	0x0089, r29	; 0x800089 <__TEXT_REGION_LENGTH__+0x7c0089>
    28dc:	c0 93 88 00 	sts	0x0088, r28	; 0x800088 <__TEXT_REGION_LENGTH__+0x7c0088>
    28e0:	b0 93 8b 00 	sts	0x008B, r27	; 0x80008b <__TEXT_REGION_LENGTH__+0x7c008b>
    28e4:	a0 93 8a 00 	sts	0x008A, r26	; 0x80008a <__TEXT_REGION_LENGTH__+0x7c008a>
    28e8:	70 93 8d 00 	sts	0x008D, r23	; 0x80008d <__TEXT_REGION_LENGTH__+0x7c008d>
    28ec:	60 93 8c 00 	sts	0x008C, r22	; 0x80008c <__TEXT_REGION_LENGTH__+0x7c008c>
    28f0:	50 93 85 00 	sts	0x0085, r21	; 0x800085 <__TEXT_REGION_LENGTH__+0x7c0085>
    28f4:	40 93 84 00 	sts	0x0084, r20	; 0x800084 <__TEXT_REGION_LENGTH__+0x7c0084>
    28f8:	40 c0       	rjmp	.+128    	; 0x297a <_ZN7Timer168start_msEjjjjh+0x14e>
    28fa:	20 91 ca 02 	lds	r18, 0x02CA	; 0x8002ca <tc_vect+0x6>
    28fe:	30 91 cb 02 	lds	r19, 0x02CB	; 0x8002cb <tc_vect+0x7>
    2902:	82 17       	cp	r24, r18
    2904:	93 07       	cpc	r25, r19
    2906:	89 f4       	brne	.+34     	; 0x292a <_ZN7Timer168start_msEjjjjh+0xfe>
    2908:	d0 93 99 00 	sts	0x0099, r29	; 0x800099 <__TEXT_REGION_LENGTH__+0x7c0099>
    290c:	c0 93 98 00 	sts	0x0098, r28	; 0x800098 <__TEXT_REGION_LENGTH__+0x7c0098>
    2910:	b0 93 9b 00 	sts	0x009B, r27	; 0x80009b <__TEXT_REGION_LENGTH__+0x7c009b>
    2914:	a0 93 9a 00 	sts	0x009A, r26	; 0x80009a <__TEXT_REGION_LENGTH__+0x7c009a>
    2918:	70 93 9d 00 	sts	0x009D, r23	; 0x80009d <__TEXT_REGION_LENGTH__+0x7c009d>
    291c:	60 93 9c 00 	sts	0x009C, r22	; 0x80009c <__TEXT_REGION_LENGTH__+0x7c009c>
    2920:	50 93 95 00 	sts	0x0095, r21	; 0x800095 <__TEXT_REGION_LENGTH__+0x7c0095>
    2924:	40 93 94 00 	sts	0x0094, r20	; 0x800094 <__TEXT_REGION_LENGTH__+0x7c0094>
    2928:	28 c0       	rjmp	.+80     	; 0x297a <_ZN7Timer168start_msEjjjjh+0x14e>
    292a:	20 91 cc 02 	lds	r18, 0x02CC	; 0x8002cc <tc_vect+0x8>
    292e:	30 91 cd 02 	lds	r19, 0x02CD	; 0x8002cd <tc_vect+0x9>
    2932:	82 17       	cp	r24, r18
    2934:	93 07       	cpc	r25, r19
    2936:	89 f4       	brne	.+34     	; 0x295a <_ZN7Timer168start_msEjjjjh+0x12e>
    2938:	d0 93 a9 00 	sts	0x00A9, r29	; 0x8000a9 <__TEXT_REGION_LENGTH__+0x7c00a9>
    293c:	c0 93 a8 00 	sts	0x00A8, r28	; 0x8000a8 <__TEXT_REGION_LENGTH__+0x7c00a8>
    2940:	b0 93 ab 00 	sts	0x00AB, r27	; 0x8000ab <__TEXT_REGION_LENGTH__+0x7c00ab>
    2944:	a0 93 aa 00 	sts	0x00AA, r26	; 0x8000aa <__TEXT_REGION_LENGTH__+0x7c00aa>
    2948:	70 93 ad 00 	sts	0x00AD, r23	; 0x8000ad <__TEXT_REGION_LENGTH__+0x7c00ad>
    294c:	60 93 ac 00 	sts	0x00AC, r22	; 0x8000ac <__TEXT_REGION_LENGTH__+0x7c00ac>
    2950:	50 93 a5 00 	sts	0x00A5, r21	; 0x8000a5 <__TEXT_REGION_LENGTH__+0x7c00a5>
    2954:	40 93 a4 00 	sts	0x00A4, r20	; 0x8000a4 <__TEXT_REGION_LENGTH__+0x7c00a4>
    2958:	10 c0       	rjmp	.+32     	; 0x297a <_ZN7Timer168start_msEjjjjh+0x14e>
    295a:	d0 93 29 01 	sts	0x0129, r29	; 0x800129 <__TEXT_REGION_LENGTH__+0x7c0129>
    295e:	c0 93 28 01 	sts	0x0128, r28	; 0x800128 <__TEXT_REGION_LENGTH__+0x7c0128>
    2962:	b0 93 2b 01 	sts	0x012B, r27	; 0x80012b <__TEXT_REGION_LENGTH__+0x7c012b>
    2966:	a0 93 2a 01 	sts	0x012A, r26	; 0x80012a <__TEXT_REGION_LENGTH__+0x7c012a>
    296a:	70 93 2d 01 	sts	0x012D, r23	; 0x80012d <__TEXT_REGION_LENGTH__+0x7c012d>
    296e:	60 93 2c 01 	sts	0x012C, r22	; 0x80012c <__TEXT_REGION_LENGTH__+0x7c012c>
    2972:	50 93 25 01 	sts	0x0125, r21	; 0x800125 <__TEXT_REGION_LENGTH__+0x7c0125>
    2976:	40 93 24 01 	sts	0x0124, r20	; 0x800124 <__TEXT_REGION_LENGTH__+0x7c0124>
    297a:	e6 82       	std	Z+6, r14	; 0x06
    297c:	81 e0       	ldi	r24, 0x01	; 1
    297e:	87 83       	std	Z+7, r24	; 0x07
    2980:	ff be       	out	0x3f, r15	; 63
    2982:	df 91       	pop	r29
    2984:	cf 91       	pop	r28
    2986:	1f 91       	pop	r17
    2988:	0f 91       	pop	r16
    298a:	ff 90       	pop	r15
    298c:	ef 90       	pop	r14
    298e:	08 95       	ret

00002990 <_ZN6Timer8C1EhPFvvES1_S1_>:
    2990:	bf 92       	push	r11
    2992:	cf 92       	push	r12
    2994:	df 92       	push	r13
    2996:	ef 92       	push	r14
    2998:	ff 92       	push	r15
    299a:	0f 93       	push	r16
    299c:	1f 93       	push	r17
    299e:	cf 93       	push	r28
    29a0:	df 93       	push	r29
    29a2:	ec 01       	movw	r28, r24
    29a4:	b6 2e       	mov	r11, r22
    29a6:	6a 01       	movw	r12, r20
    29a8:	79 01       	movw	r14, r18
    29aa:	80 e9       	ldi	r24, 0x90	; 144
    29ac:	92 e0       	ldi	r25, 0x02	; 2
    29ae:	99 83       	std	Y+1, r25	; 0x01
    29b0:	88 83       	st	Y, r24
    29b2:	86 2f       	mov	r24, r22
    29b4:	3c d1       	rcall	.+632    	; 0x2c2e <_Z20tc_handle_to_addressh>
    29b6:	9b 83       	std	Y+3, r25	; 0x03
    29b8:	8a 83       	std	Y+2, r24	; 0x02
    29ba:	eb 2d       	mov	r30, r11
    29bc:	f0 e0       	ldi	r31, 0x00	; 0
    29be:	ee 0f       	add	r30, r30
    29c0:	ff 1f       	adc	r31, r31
    29c2:	ec 53       	subi	r30, 0x3C	; 60
    29c4:	fd 4f       	sbci	r31, 0xFD	; 253
    29c6:	80 81       	ld	r24, Z
    29c8:	91 81       	ldd	r25, Z+1	; 0x01
    29ca:	01 96       	adiw	r24, 0x01	; 1
    29cc:	9d 83       	std	Y+5, r25	; 0x05
    29ce:	8c 83       	std	Y+4, r24	; 0x04
    29d0:	8e e9       	ldi	r24, 0x9E	; 158
    29d2:	92 e0       	ldi	r25, 0x02	; 2
    29d4:	99 83       	std	Y+1, r25	; 0x01
    29d6:	88 83       	st	Y, r24
    29d8:	b1 10       	cpse	r11, r1
    29da:	1d c0       	rjmp	.+58     	; 0x2a16 <_ZN6Timer8C1EhPFvvES1_S1_+0x86>
    29dc:	d0 93 f6 1c 	sts	0x1CF6, r29	; 0x801cf6 <timer_obj+0x1>
    29e0:	c0 93 f5 1c 	sts	0x1CF5, r28	; 0x801cf5 <timer_obj>
    29e4:	c1 14       	cp	r12, r1
    29e6:	d1 04       	cpc	r13, r1
    29e8:	29 f0       	breq	.+10     	; 0x29f4 <_ZN6Timer8C1EhPFvvES1_S1_+0x64>
    29ea:	ee e6       	ldi	r30, 0x6E	; 110
    29ec:	f0 e0       	ldi	r31, 0x00	; 0
    29ee:	80 81       	ld	r24, Z
    29f0:	82 60       	ori	r24, 0x02	; 2
    29f2:	80 83       	st	Z, r24
    29f4:	e1 14       	cp	r14, r1
    29f6:	f1 04       	cpc	r15, r1
    29f8:	29 f0       	breq	.+10     	; 0x2a04 <_ZN6Timer8C1EhPFvvES1_S1_+0x74>
    29fa:	ee e6       	ldi	r30, 0x6E	; 110
    29fc:	f0 e0       	ldi	r31, 0x00	; 0
    29fe:	80 81       	ld	r24, Z
    2a00:	84 60       	ori	r24, 0x04	; 4
    2a02:	80 83       	st	Z, r24
    2a04:	01 15       	cp	r16, r1
    2a06:	11 05       	cpc	r17, r1
    2a08:	29 f1       	breq	.+74     	; 0x2a54 <_ZN6Timer8C1EhPFvvES1_S1_+0xc4>
    2a0a:	ee e6       	ldi	r30, 0x6E	; 110
    2a0c:	f0 e0       	ldi	r31, 0x00	; 0
    2a0e:	80 81       	ld	r24, Z
    2a10:	81 60       	ori	r24, 0x01	; 1
    2a12:	80 83       	st	Z, r24
    2a14:	1f c0       	rjmp	.+62     	; 0x2a54 <_ZN6Timer8C1EhPFvvES1_S1_+0xc4>
    2a16:	82 e0       	ldi	r24, 0x02	; 2
    2a18:	b8 12       	cpse	r11, r24
    2a1a:	26 c0       	rjmp	.+76     	; 0x2a68 <_ZN6Timer8C1EhPFvvES1_S1_+0xd8>
    2a1c:	d0 93 fa 1c 	sts	0x1CFA, r29	; 0x801cfa <timer_obj+0x5>
    2a20:	c0 93 f9 1c 	sts	0x1CF9, r28	; 0x801cf9 <timer_obj+0x4>
    2a24:	c1 14       	cp	r12, r1
    2a26:	d1 04       	cpc	r13, r1
    2a28:	29 f0       	breq	.+10     	; 0x2a34 <_ZN6Timer8C1EhPFvvES1_S1_+0xa4>
    2a2a:	e0 e7       	ldi	r30, 0x70	; 112
    2a2c:	f0 e0       	ldi	r31, 0x00	; 0
    2a2e:	80 81       	ld	r24, Z
    2a30:	82 60       	ori	r24, 0x02	; 2
    2a32:	80 83       	st	Z, r24
    2a34:	e1 14       	cp	r14, r1
    2a36:	f1 04       	cpc	r15, r1
    2a38:	29 f0       	breq	.+10     	; 0x2a44 <_ZN6Timer8C1EhPFvvES1_S1_+0xb4>
    2a3a:	e0 e7       	ldi	r30, 0x70	; 112
    2a3c:	f0 e0       	ldi	r31, 0x00	; 0
    2a3e:	80 81       	ld	r24, Z
    2a40:	84 60       	ori	r24, 0x04	; 4
    2a42:	80 83       	st	Z, r24
    2a44:	01 15       	cp	r16, r1
    2a46:	11 05       	cpc	r17, r1
    2a48:	29 f0       	breq	.+10     	; 0x2a54 <_ZN6Timer8C1EhPFvvES1_S1_+0xc4>
    2a4a:	e0 e7       	ldi	r30, 0x70	; 112
    2a4c:	f0 e0       	ldi	r31, 0x00	; 0
    2a4e:	80 81       	ld	r24, Z
    2a50:	81 60       	ori	r24, 0x01	; 1
    2a52:	80 83       	st	Z, r24
    2a54:	d9 86       	std	Y+9, r13	; 0x09
    2a56:	c8 86       	std	Y+8, r12	; 0x08
    2a58:	fb 86       	std	Y+11, r15	; 0x0b
    2a5a:	ea 86       	std	Y+10, r14	; 0x0a
    2a5c:	1d 86       	std	Y+13, r1	; 0x0d
    2a5e:	1c 86       	std	Y+12, r1	; 0x0c
    2a60:	1f 87       	std	Y+15, r17	; 0x0f
    2a62:	0e 87       	std	Y+14, r16	; 0x0e
    2a64:	1e 82       	std	Y+6, r1	; 0x06
    2a66:	1f 82       	std	Y+7, r1	; 0x07
    2a68:	df 91       	pop	r29
    2a6a:	cf 91       	pop	r28
    2a6c:	1f 91       	pop	r17
    2a6e:	0f 91       	pop	r16
    2a70:	ff 90       	pop	r15
    2a72:	ef 90       	pop	r14
    2a74:	df 90       	pop	r13
    2a76:	cf 90       	pop	r12
    2a78:	bf 90       	pop	r11
    2a7a:	08 95       	ret

00002a7c <_ZN7OSTimerC1Eh>:
    2a7c:	ef 92       	push	r14
    2a7e:	ff 92       	push	r15
    2a80:	0f 93       	push	r16
    2a82:	1f 93       	push	r17
    2a84:	cf 93       	push	r28
    2a86:	7c 01       	movw	r14, r24
    2a88:	c6 2f       	mov	r28, r22
    2a8a:	00 e0       	ldi	r16, 0x00	; 0
    2a8c:	10 e0       	ldi	r17, 0x00	; 0
    2a8e:	20 e0       	ldi	r18, 0x00	; 0
    2a90:	30 e0       	ldi	r19, 0x00	; 0
    2a92:	40 e0       	ldi	r20, 0x00	; 0
    2a94:	50 e0       	ldi	r21, 0x00	; 0
    2a96:	7c df       	rcall	.-264    	; 0x2990 <_ZN6Timer8C1EhPFvvES1_S1_>
    2a98:	8c ea       	ldi	r24, 0xAC	; 172
    2a9a:	92 e0       	ldi	r25, 0x02	; 2
    2a9c:	f7 01       	movw	r30, r14
    2a9e:	91 83       	std	Z+1, r25	; 0x01
    2aa0:	80 83       	st	Z, r24
    2aa2:	c1 11       	cpse	r28, r1
    2aa4:	04 c0       	rjmp	.+8      	; 0x2aae <_ZN7OSTimerC1Eh+0x32>
    2aa6:	81 e0       	ldi	r24, 0x01	; 1
    2aa8:	80 93 6e 00 	sts	0x006E, r24	; 0x80006e <__TEXT_REGION_LENGTH__+0x7c006e>
    2aac:	05 c0       	rjmp	.+10     	; 0x2ab8 <_ZN7OSTimerC1Eh+0x3c>
    2aae:	c2 30       	cpi	r28, 0x02	; 2
    2ab0:	19 f4       	brne	.+6      	; 0x2ab8 <_ZN7OSTimerC1Eh+0x3c>
    2ab2:	81 e0       	ldi	r24, 0x01	; 1
    2ab4:	80 93 70 00 	sts	0x0070, r24	; 0x800070 <__TEXT_REGION_LENGTH__+0x7c0070>
    2ab8:	cf 91       	pop	r28
    2aba:	1f 91       	pop	r17
    2abc:	0f 91       	pop	r16
    2abe:	ff 90       	pop	r15
    2ac0:	ef 90       	pop	r14
    2ac2:	08 95       	ret

00002ac4 <_ZN7OSTimer13force_timeoutEv>:
    2ac4:	dc 01       	movw	r26, r24
    2ac6:	2f b7       	in	r18, 0x3f	; 63
    2ac8:	f8 94       	cli
    2aca:	83 b7       	in	r24, 0x33	; 51
    2acc:	81 7f       	andi	r24, 0xF1	; 241
    2ace:	83 bf       	out	0x33, r24	; 51
    2ad0:	12 96       	adiw	r26, 0x02	; 2
    2ad2:	4d 91       	ld	r20, X+
    2ad4:	5c 91       	ld	r21, X
    2ad6:	13 97       	sbiw	r26, 0x03	; 3
    2ad8:	80 91 c4 02 	lds	r24, 0x02C4	; 0x8002c4 <tc_vect>
    2adc:	90 91 c5 02 	lds	r25, 0x02C5	; 0x8002c5 <tc_vect+0x1>
    2ae0:	48 17       	cp	r20, r24
    2ae2:	59 07       	cpc	r21, r25
    2ae4:	21 f4       	brne	.+8      	; 0x2aee <_ZN7OSTimer13force_timeoutEv+0x2a>
    2ae6:	86 b5       	in	r24, 0x26	; 38
    2ae8:	9f ef       	ldi	r25, 0xFF	; 255
    2aea:	96 bd       	out	0x26, r25	; 38
    2aec:	05 c0       	rjmp	.+10     	; 0x2af8 <_ZN7OSTimer13force_timeoutEv+0x34>
    2aee:	e2 eb       	ldi	r30, 0xB2	; 178
    2af0:	f0 e0       	ldi	r31, 0x00	; 0
    2af2:	80 81       	ld	r24, Z
    2af4:	9f ef       	ldi	r25, 0xFF	; 255
    2af6:	90 83       	st	Z, r25
    2af8:	14 96       	adiw	r26, 0x04	; 4
    2afa:	ed 91       	ld	r30, X+
    2afc:	fc 91       	ld	r31, X
    2afe:	15 97       	sbiw	r26, 0x05	; 5
    2b00:	91 e0       	ldi	r25, 0x01	; 1
    2b02:	90 83       	st	Z, r25
    2b04:	2f bf       	out	0x3f, r18	; 63
    2b06:	93 b7       	in	r25, 0x33	; 51
    2b08:	91 60       	ori	r25, 0x01	; 1
    2b0a:	93 bf       	out	0x33, r25	; 51
    2b0c:	88 95       	sleep
    2b0e:	93 b7       	in	r25, 0x33	; 51
    2b10:	9e 7f       	andi	r25, 0xFE	; 254
    2b12:	93 bf       	out	0x33, r25	; 51
    2b14:	50 96       	adiw	r26, 0x10	; 16
    2b16:	9c 91       	ld	r25, X
    2b18:	89 1b       	sub	r24, r25
    2b1a:	08 95       	ret

00002b1c <_ZN5Timer4stopEv>:
    2b1c:	fc 01       	movw	r30, r24
    2b1e:	9f b7       	in	r25, 0x3f	; 63
    return 1;
}

static __inline__ uint8_t __iCliRetVal(void)
{
    cli();
    2b20:	f8 94       	cli
    2b22:	a4 81       	ldd	r26, Z+4	; 0x04
    2b24:	b5 81       	ldd	r27, Z+5	; 0x05
    2b26:	8c 91       	ld	r24, X
    2b28:	88 7f       	andi	r24, 0xF8	; 248
    2b2a:	8c 93       	st	X, r24
    2b2c:	16 82       	std	Z+6, r1	; 0x06
    2b2e:	17 82       	std	Z+7, r1	; 0x07
    (void)__s;
}

static __inline__ void __iRestore(const  uint8_t *__s)
{
    SREG = *__s;
    2b30:	9f bf       	out	0x3f, r25	; 63
    __asm__ volatile ("" ::: "memory");
    2b32:	08 95       	ret

00002b34 <_ZN7Timer165resetEv>:
    2b34:	fc 01       	movw	r30, r24
    2b36:	86 81       	ldd	r24, Z+6	; 0x06
    2b38:	82 30       	cpi	r24, 0x02	; 2
    2b3a:	b8 f1       	brcs	.+110    	; 0x2baa <_ZN7Timer165resetEv+0x76>
    2b3c:	8f 3f       	cpi	r24, 0xFF	; 255
    2b3e:	11 f0       	breq	.+4      	; 0x2b44 <_ZN7Timer165resetEv+0x10>
    2b40:	81 50       	subi	r24, 0x01	; 1
    2b42:	86 83       	std	Z+6, r24	; 0x06
    2b44:	82 81       	ldd	r24, Z+2	; 0x02
    2b46:	93 81       	ldd	r25, Z+3	; 0x03
    2b48:	20 91 c6 02 	lds	r18, 0x02C6	; 0x8002c6 <tc_vect+0x2>
    2b4c:	30 91 c7 02 	lds	r19, 0x02C7	; 0x8002c7 <tc_vect+0x3>
    2b50:	82 17       	cp	r24, r18
    2b52:	93 07       	cpc	r25, r19
    2b54:	39 f4       	brne	.+14     	; 0x2b64 <_ZN7Timer165resetEv+0x30>
    2b56:	80 89       	ldd	r24, Z+16	; 0x10
    2b58:	91 89       	ldd	r25, Z+17	; 0x11
    2b5a:	90 93 85 00 	sts	0x0085, r25	; 0x800085 <__TEXT_REGION_LENGTH__+0x7c0085>
    2b5e:	80 93 84 00 	sts	0x0084, r24	; 0x800084 <__TEXT_REGION_LENGTH__+0x7c0084>
    2b62:	08 95       	ret
    2b64:	20 91 ca 02 	lds	r18, 0x02CA	; 0x8002ca <tc_vect+0x6>
    2b68:	30 91 cb 02 	lds	r19, 0x02CB	; 0x8002cb <tc_vect+0x7>
    2b6c:	82 17       	cp	r24, r18
    2b6e:	93 07       	cpc	r25, r19
    2b70:	39 f4       	brne	.+14     	; 0x2b80 <_ZN7Timer165resetEv+0x4c>
    2b72:	80 89       	ldd	r24, Z+16	; 0x10
    2b74:	91 89       	ldd	r25, Z+17	; 0x11
    2b76:	90 93 95 00 	sts	0x0095, r25	; 0x800095 <__TEXT_REGION_LENGTH__+0x7c0095>
    2b7a:	80 93 94 00 	sts	0x0094, r24	; 0x800094 <__TEXT_REGION_LENGTH__+0x7c0094>
    2b7e:	08 95       	ret
    2b80:	20 91 cc 02 	lds	r18, 0x02CC	; 0x8002cc <tc_vect+0x8>
    2b84:	30 91 cd 02 	lds	r19, 0x02CD	; 0x8002cd <tc_vect+0x9>
    2b88:	82 17       	cp	r24, r18
    2b8a:	93 07       	cpc	r25, r19
    2b8c:	39 f4       	brne	.+14     	; 0x2b9c <_ZN7Timer165resetEv+0x68>
    2b8e:	80 89       	ldd	r24, Z+16	; 0x10
    2b90:	91 89       	ldd	r25, Z+17	; 0x11
    2b92:	90 93 a5 00 	sts	0x00A5, r25	; 0x8000a5 <__TEXT_REGION_LENGTH__+0x7c00a5>
    2b96:	80 93 a4 00 	sts	0x00A4, r24	; 0x8000a4 <__TEXT_REGION_LENGTH__+0x7c00a4>
    2b9a:	08 95       	ret
    2b9c:	80 89       	ldd	r24, Z+16	; 0x10
    2b9e:	91 89       	ldd	r25, Z+17	; 0x11
    2ba0:	90 93 25 01 	sts	0x0125, r25	; 0x800125 <__TEXT_REGION_LENGTH__+0x7c0125>
    2ba4:	80 93 24 01 	sts	0x0124, r24	; 0x800124 <__TEXT_REGION_LENGTH__+0x7c0124>
    2ba8:	08 95       	ret
    2baa:	cf 01       	movw	r24, r30
    2bac:	b7 cf       	rjmp	.-146    	; 0x2b1c <_ZN5Timer4stopEv>
    2bae:	08 95       	ret

00002bb0 <_ZN6Timer85resetEv>:
    2bb0:	fc 01       	movw	r30, r24
    2bb2:	86 81       	ldd	r24, Z+6	; 0x06
    2bb4:	82 30       	cpi	r24, 0x02	; 2
    2bb6:	a0 f0       	brcs	.+40     	; 0x2be0 <_ZN6Timer85resetEv+0x30>
    2bb8:	8f 3f       	cpi	r24, 0xFF	; 255
    2bba:	11 f0       	breq	.+4      	; 0x2bc0 <_ZN6Timer85resetEv+0x10>
    2bbc:	81 50       	subi	r24, 0x01	; 1
    2bbe:	86 83       	std	Z+6, r24	; 0x06
    2bc0:	22 81       	ldd	r18, Z+2	; 0x02
    2bc2:	33 81       	ldd	r19, Z+3	; 0x03
    2bc4:	80 91 c4 02 	lds	r24, 0x02C4	; 0x8002c4 <tc_vect>
    2bc8:	90 91 c5 02 	lds	r25, 0x02C5	; 0x8002c5 <tc_vect+0x1>
    2bcc:	28 17       	cp	r18, r24
    2bce:	39 07       	cpc	r19, r25
    2bd0:	19 f4       	brne	.+6      	; 0x2bd8 <_ZN6Timer85resetEv+0x28>
    2bd2:	80 89       	ldd	r24, Z+16	; 0x10
    2bd4:	86 bd       	out	0x26, r24	; 38
    2bd6:	08 95       	ret
    2bd8:	80 89       	ldd	r24, Z+16	; 0x10
    2bda:	80 93 b2 00 	sts	0x00B2, r24	; 0x8000b2 <__TEXT_REGION_LENGTH__+0x7c00b2>
    2bde:	08 95       	ret
    2be0:	cf 01       	movw	r24, r30
    2be2:	9c cf       	rjmp	.-200    	; 0x2b1c <_ZN5Timer4stopEv>
    2be4:	08 95       	ret

00002be6 <_Z22port_handle_to_addressh>:
    2be6:	28 2f       	mov	r18, r24
    2be8:	30 e0       	ldi	r19, 0x00	; 0
    2bea:	41 e0       	ldi	r20, 0x01	; 1
    2bec:	50 e0       	ldi	r21, 0x00	; 0
    2bee:	ba 01       	movw	r22, r20
    2bf0:	02 c0       	rjmp	.+4      	; 0x2bf6 <_Z22port_handle_to_addressh+0x10>
    2bf2:	66 0f       	add	r22, r22
    2bf4:	77 1f       	adc	r23, r23
    2bf6:	8a 95       	dec	r24
    2bf8:	e2 f7       	brpl	.-8      	; 0x2bf2 <_Z22port_handle_to_addressh+0xc>
    2bfa:	cb 01       	movw	r24, r22
    2bfc:	40 91 02 1d 	lds	r20, 0x1D02	; 0x801d02 <_ZL10port_usage>
    2c00:	50 91 03 1d 	lds	r21, 0x1D03	; 0x801d03 <_ZL10port_usage+0x1>
    2c04:	64 23       	and	r22, r20
    2c06:	75 23       	and	r23, r21
    2c08:	67 2b       	or	r22, r23
    2c0a:	71 f4       	brne	.+28     	; 0x2c28 <_Z22port_handle_to_addressh+0x42>
    2c0c:	84 2b       	or	r24, r20
    2c0e:	95 2b       	or	r25, r21
    2c10:	90 93 03 1d 	sts	0x1D03, r25	; 0x801d03 <_ZL10port_usage+0x1>
    2c14:	80 93 02 1d 	sts	0x1D02, r24	; 0x801d02 <_ZL10port_usage>
    2c18:	22 0f       	add	r18, r18
    2c1a:	33 1f       	adc	r19, r19
    2c1c:	f9 01       	movw	r30, r18
    2c1e:	e0 53       	subi	r30, 0x30	; 48
    2c20:	fd 4f       	sbci	r31, 0xFD	; 253
    2c22:	80 81       	ld	r24, Z
    2c24:	91 81       	ldd	r25, Z+1	; 0x01
    2c26:	08 95       	ret
    2c28:	80 e0       	ldi	r24, 0x00	; 0
    2c2a:	90 e0       	ldi	r25, 0x00	; 0
    2c2c:	08 95       	ret

00002c2e <_Z20tc_handle_to_addressh>:
    2c2e:	60 91 01 1d 	lds	r22, 0x1D01	; 0x801d01 <_ZL8tc_usage>
    2c32:	28 2f       	mov	r18, r24
    2c34:	30 e0       	ldi	r19, 0x00	; 0
    2c36:	46 2f       	mov	r20, r22
    2c38:	50 e0       	ldi	r21, 0x00	; 0
    2c3a:	08 2e       	mov	r0, r24
    2c3c:	02 c0       	rjmp	.+4      	; 0x2c42 <_Z20tc_handle_to_addressh+0x14>
    2c3e:	55 95       	asr	r21
    2c40:	47 95       	ror	r20
    2c42:	0a 94       	dec	r0
    2c44:	e2 f7       	brpl	.-8      	; 0x2c3e <_Z20tc_handle_to_addressh+0x10>
    2c46:	40 fd       	sbrc	r20, 0
    2c48:	14 c0       	rjmp	.+40     	; 0x2c72 <_Z20tc_handle_to_addressh+0x44>
    2c4a:	41 e0       	ldi	r20, 0x01	; 1
    2c4c:	50 e0       	ldi	r21, 0x00	; 0
    2c4e:	fa 01       	movw	r30, r20
    2c50:	02 c0       	rjmp	.+4      	; 0x2c56 <_Z20tc_handle_to_addressh+0x28>
    2c52:	ee 0f       	add	r30, r30
    2c54:	ff 1f       	adc	r31, r31
    2c56:	8a 95       	dec	r24
    2c58:	e2 f7       	brpl	.-8      	; 0x2c52 <_Z20tc_handle_to_addressh+0x24>
    2c5a:	cf 01       	movw	r24, r30
    2c5c:	86 2b       	or	r24, r22
    2c5e:	80 93 01 1d 	sts	0x1D01, r24	; 0x801d01 <_ZL8tc_usage>
    2c62:	22 0f       	add	r18, r18
    2c64:	33 1f       	adc	r19, r19
    2c66:	f9 01       	movw	r30, r18
    2c68:	ec 53       	subi	r30, 0x3C	; 60
    2c6a:	fd 4f       	sbci	r31, 0xFD	; 253
    2c6c:	80 81       	ld	r24, Z
    2c6e:	91 81       	ldd	r25, Z+1	; 0x01
    2c70:	08 95       	ret
    2c72:	80 e0       	ldi	r24, 0x00	; 0
    2c74:	90 e0       	ldi	r25, 0x00	; 0
    2c76:	08 95       	ret

00002c78 <__udivmodhi4>:
    2c78:	aa 1b       	sub	r26, r26
    2c7a:	bb 1b       	sub	r27, r27
    2c7c:	51 e1       	ldi	r21, 0x11	; 17
    2c7e:	07 c0       	rjmp	.+14     	; 0x2c8e <__udivmodhi4_ep>

00002c80 <__udivmodhi4_loop>:
    2c80:	aa 1f       	adc	r26, r26
    2c82:	bb 1f       	adc	r27, r27
    2c84:	a6 17       	cp	r26, r22
    2c86:	b7 07       	cpc	r27, r23
    2c88:	10 f0       	brcs	.+4      	; 0x2c8e <__udivmodhi4_ep>
    2c8a:	a6 1b       	sub	r26, r22
    2c8c:	b7 0b       	sbc	r27, r23

00002c8e <__udivmodhi4_ep>:
    2c8e:	88 1f       	adc	r24, r24
    2c90:	99 1f       	adc	r25, r25
    2c92:	5a 95       	dec	r21
    2c94:	a9 f7       	brne	.-22     	; 0x2c80 <__udivmodhi4_loop>
    2c96:	80 95       	com	r24
    2c98:	90 95       	com	r25
    2c9a:	bc 01       	movw	r22, r24
    2c9c:	cd 01       	movw	r24, r26
    2c9e:	08 95       	ret

00002ca0 <__divmodhi4>:
    2ca0:	97 fb       	bst	r25, 7
    2ca2:	07 2e       	mov	r0, r23
    2ca4:	16 f4       	brtc	.+4      	; 0x2caa <__divmodhi4+0xa>
    2ca6:	00 94       	com	r0
    2ca8:	06 d0       	rcall	.+12     	; 0x2cb6 <__divmodhi4_neg1>
    2caa:	77 fd       	sbrc	r23, 7
    2cac:	08 d0       	rcall	.+16     	; 0x2cbe <__divmodhi4_neg2>
    2cae:	e4 df       	rcall	.-56     	; 0x2c78 <__udivmodhi4>
    2cb0:	07 fc       	sbrc	r0, 7
    2cb2:	05 d0       	rcall	.+10     	; 0x2cbe <__divmodhi4_neg2>
    2cb4:	3e f4       	brtc	.+14     	; 0x2cc4 <__divmodhi4_exit>

00002cb6 <__divmodhi4_neg1>:
    2cb6:	90 95       	com	r25
    2cb8:	81 95       	neg	r24
    2cba:	9f 4f       	sbci	r25, 0xFF	; 255
    2cbc:	08 95       	ret

00002cbe <__divmodhi4_neg2>:
    2cbe:	70 95       	com	r23
    2cc0:	61 95       	neg	r22
    2cc2:	7f 4f       	sbci	r23, 0xFF	; 255

00002cc4 <__divmodhi4_exit>:
    2cc4:	08 95       	ret

00002cc6 <__umulhisi3>:
    2cc6:	a2 9f       	mul	r26, r18
    2cc8:	b0 01       	movw	r22, r0
    2cca:	b3 9f       	mul	r27, r19
    2ccc:	c0 01       	movw	r24, r0
    2cce:	a3 9f       	mul	r26, r19
    2cd0:	70 0d       	add	r23, r0
    2cd2:	81 1d       	adc	r24, r1
    2cd4:	11 24       	eor	r1, r1
    2cd6:	91 1d       	adc	r25, r1
    2cd8:	b2 9f       	mul	r27, r18
    2cda:	70 0d       	add	r23, r0
    2cdc:	81 1d       	adc	r24, r1
    2cde:	11 24       	eor	r1, r1
    2ce0:	91 1d       	adc	r25, r1
    2ce2:	08 95       	ret

00002ce4 <__tablejump2__>:
    2ce4:	ee 0f       	add	r30, r30
    2ce6:	ff 1f       	adc	r31, r31
    2ce8:	88 1f       	adc	r24, r24
    2cea:	8b bf       	out	0x3b, r24	; 59
    2cec:	07 90       	elpm	r0, Z+
    2cee:	f6 91       	elpm	r31, Z
    2cf0:	e0 2d       	mov	r30, r0
    2cf2:	19 94       	eijmp

00002cf4 <eeprom_read_byte>:
    2cf4:	f9 99       	sbic	0x1f, 1	; 31
    2cf6:	fe cf       	rjmp	.-4      	; 0x2cf4 <eeprom_read_byte>
    2cf8:	92 bd       	out	0x22, r25	; 34
    2cfa:	81 bd       	out	0x21, r24	; 33
    2cfc:	f8 9a       	sbi	0x1f, 0	; 31
    2cfe:	99 27       	eor	r25, r25
    2d00:	80 b5       	in	r24, 0x20	; 32
    2d02:	08 95       	ret

00002d04 <eeprom_write_byte>:
    2d04:	26 2f       	mov	r18, r22

00002d06 <eeprom_write_r18>:
    2d06:	f9 99       	sbic	0x1f, 1	; 31
    2d08:	fe cf       	rjmp	.-4      	; 0x2d06 <eeprom_write_r18>
    2d0a:	1f ba       	out	0x1f, r1	; 31
    2d0c:	92 bd       	out	0x22, r25	; 34
    2d0e:	81 bd       	out	0x21, r24	; 33
    2d10:	20 bd       	out	0x20, r18	; 32
    2d12:	0f b6       	in	r0, 0x3f	; 63
    2d14:	f8 94       	cli
    2d16:	fa 9a       	sbi	0x1f, 2	; 31
    2d18:	f9 9a       	sbi	0x1f, 1	; 31
    2d1a:	0f be       	out	0x3f, r0	; 63
    2d1c:	01 96       	adiw	r24, 0x01	; 1
    2d1e:	08 95       	ret

00002d20 <_exit>:
    2d20:	f8 94       	cli

00002d22 <__stop_program>:
    2d22:	ff cf       	rjmp	.-2      	; 0x2d22 <__stop_program>
